
EVK527-ATMega32U4-usbdevice_audio.elf:     file format elf32-avr


Disassembly of section .text:

00000000 <__vectors>:
       0:	0c 94 2a 0f 	jmp	0x1e54	; 0x1e54 <__ctors_end>
       4:	0c 94 52 0f 	jmp	0x1ea4	; 0x1ea4 <__bad_interrupt>
       8:	0c 94 52 0f 	jmp	0x1ea4	; 0x1ea4 <__bad_interrupt>
       c:	0c 94 52 0f 	jmp	0x1ea4	; 0x1ea4 <__bad_interrupt>
      10:	0c 94 52 0f 	jmp	0x1ea4	; 0x1ea4 <__bad_interrupt>
      14:	0c 94 52 0f 	jmp	0x1ea4	; 0x1ea4 <__bad_interrupt>
      18:	0c 94 52 0f 	jmp	0x1ea4	; 0x1ea4 <__bad_interrupt>
      1c:	0c 94 52 0f 	jmp	0x1ea4	; 0x1ea4 <__bad_interrupt>
      20:	0c 94 52 0f 	jmp	0x1ea4	; 0x1ea4 <__bad_interrupt>
      24:	0c 94 52 0f 	jmp	0x1ea4	; 0x1ea4 <__bad_interrupt>
      28:	0c 94 5f 12 	jmp	0x24be	; 0x24be <__vector_10>
      2c:	0c 94 52 0f 	jmp	0x1ea4	; 0x1ea4 <__bad_interrupt>
      30:	0c 94 52 0f 	jmp	0x1ea4	; 0x1ea4 <__bad_interrupt>
      34:	0c 94 52 0f 	jmp	0x1ea4	; 0x1ea4 <__bad_interrupt>
      38:	0c 94 52 0f 	jmp	0x1ea4	; 0x1ea4 <__bad_interrupt>
      3c:	0c 94 52 0f 	jmp	0x1ea4	; 0x1ea4 <__bad_interrupt>
      40:	0c 94 52 0f 	jmp	0x1ea4	; 0x1ea4 <__bad_interrupt>
      44:	0c 94 4d 15 	jmp	0x2a9a	; 0x2a9a <__vector_17>
      48:	0c 94 52 0f 	jmp	0x1ea4	; 0x1ea4 <__bad_interrupt>
      4c:	0c 94 52 0f 	jmp	0x1ea4	; 0x1ea4 <__bad_interrupt>
      50:	0c 94 52 0f 	jmp	0x1ea4	; 0x1ea4 <__bad_interrupt>
      54:	0c 94 a7 14 	jmp	0x294e	; 0x294e <__vector_21>
      58:	0c 94 52 0f 	jmp	0x1ea4	; 0x1ea4 <__bad_interrupt>
      5c:	0c 94 52 0f 	jmp	0x1ea4	; 0x1ea4 <__bad_interrupt>
      60:	0c 94 52 0f 	jmp	0x1ea4	; 0x1ea4 <__bad_interrupt>
      64:	0c 94 52 0f 	jmp	0x1ea4	; 0x1ea4 <__bad_interrupt>
      68:	0c 94 52 0f 	jmp	0x1ea4	; 0x1ea4 <__bad_interrupt>
      6c:	0c 94 52 0f 	jmp	0x1ea4	; 0x1ea4 <__bad_interrupt>
      70:	0c 94 52 0f 	jmp	0x1ea4	; 0x1ea4 <__bad_interrupt>
      74:	0c 94 52 0f 	jmp	0x1ea4	; 0x1ea4 <__bad_interrupt>
      78:	0c 94 52 0f 	jmp	0x1ea4	; 0x1ea4 <__bad_interrupt>
      7c:	0c 94 52 0f 	jmp	0x1ea4	; 0x1ea4 <__bad_interrupt>
      80:	0c 94 52 0f 	jmp	0x1ea4	; 0x1ea4 <__bad_interrupt>
      84:	0c 94 52 0f 	jmp	0x1ea4	; 0x1ea4 <__bad_interrupt>
      88:	0c 94 52 0f 	jmp	0x1ea4	; 0x1ea4 <__bad_interrupt>
      8c:	0c 94 52 0f 	jmp	0x1ea4	; 0x1ea4 <__bad_interrupt>
      90:	0c 94 52 0f 	jmp	0x1ea4	; 0x1ea4 <__bad_interrupt>
      94:	0c 94 52 0f 	jmp	0x1ea4	; 0x1ea4 <__bad_interrupt>
      98:	0c 94 52 0f 	jmp	0x1ea4	; 0x1ea4 <__bad_interrupt>
      9c:	0c 94 52 0f 	jmp	0x1ea4	; 0x1ea4 <__bad_interrupt>
      a0:	0c 94 52 0f 	jmp	0x1ea4	; 0x1ea4 <__bad_interrupt>
      a4:	0c 94 52 0f 	jmp	0x1ea4	; 0x1ea4 <__bad_interrupt>
      a8:	0c 94 52 0f 	jmp	0x1ea4	; 0x1ea4 <__bad_interrupt>
      ac:	e0 11       	cpse	r30, r0
      ae:	6c 11       	cpse	r22, r12
      b0:	47 12       	cpse	r4, r23
      b2:	a2 11       	cpse	r26, r2
      b4:	47 12       	cpse	r4, r23
      b6:	2f 11       	cpse	r18, r15
      b8:	75 10       	cpse	r7, r5
      ba:	47 12       	cpse	r4, r23
      bc:	13 11       	cpse	r17, r3
      be:	50 11       	cpse	r21, r0
      c0:	17 12       	cpse	r1, r23
      c2:	36 12       	cpse	r3, r22

000000c4 <__trampolines_end>:
      c4:	31 00       	.word	0x0031	; ????
      c6:	22 00       	.word	0x0022	; ????
      c8:	39 00       	.word	0x0039	; ????
      ca:	3f 00       	.word	0x003f	; ????
      cc:	5a 00       	.word	0x005a	; ????
      ce:	6a 00       	.word	0x006a	; ????
      d0:	73 00       	.word	0x0073	; ????
      d2:	91 00       	.word	0x0091	; ????
      d4:	85 00       	.word	0x0085	; ????
      d6:	b5 00       	.word	0x00b5	; ????
      d8:	d1 00       	.word	0x00d1	; ????
      da:	d9 00       	.word	0x00d9	; ????
      dc:	fb 00       	.word	0x00fb	; ????
      de:	34 01       	movw	r6, r8
      e0:	1b 01       	movw	r2, r22
      e2:	53 01       	movw	r10, r6
      e4:	9a 01       	movw	r18, r20
      e6:	72 01       	movw	r14, r4
      e8:	51 01       	movw	r10, r2
      ea:	27 01       	movw	r4, r14
      ec:	03 01       	movw	r0, r6
      ee:	9b 00       	.word	0x009b	; ????
      f0:	71 00       	.word	0x0071	; ????
      f2:	03 00       	.word	0x0003	; ????
      f4:	9f ff       	.word	0xff9f	; ????
      f6:	6e ff       	.word	0xff6e	; ????
      f8:	48 ff       	.word	0xff48	; ????
      fa:	07 ff       	sbrs	r16, 7
      fc:	3f ff       	.word	0xff3f	; ????
      fe:	33 ff       	sbrs	r19, 3
     100:	a6 ff       	sbrs	r26, 6
     102:	3c 00       	.word	0x003c	; ????
     104:	e2 00       	.word	0x00e2	; ????
     106:	93 01       	movw	r18, r6
     108:	24 02       	muls	r18, r20
     10a:	28 03       	fmul	r18, r16
     10c:	9b 03       	fmulsu	r17, r19
     10e:	20 04       	cpc	r2, r0
     110:	35 04       	cpc	r3, r5
     112:	6b 04       	cpc	r6, r11
     114:	94 04       	cpc	r9, r4
     116:	79 04       	cpc	r7, r9
     118:	6b 04       	cpc	r6, r11
     11a:	16 04       	cpc	r1, r6
     11c:	e8 03       	fmulsu	r22, r16
     11e:	54 03       	mulsu	r21, r20
     120:	0e 03       	fmul	r16, r22
     122:	de 02       	muls	r29, r30
     124:	59 02       	muls	r21, r25
     126:	8f 01       	movw	r16, r30
     128:	91 00       	.word	0x0091	; ????
     12a:	09 00       	.word	0x0009	; ????
     12c:	39 ff       	.word	0xff39	; ????
     12e:	ee fe       	.word	0xfeee	; ????
     130:	9f fe       	.word	0xfe9f	; ????
     132:	7a fe       	.word	0xfe7a	; ????
     134:	ac fe       	.word	0xfeac	; ????
     136:	e8 fe       	.word	0xfee8	; ????
     138:	4c ff       	.word	0xff4c	; ????
     13a:	8f ff       	.word	0xff8f	; ????
     13c:	88 00       	.word	0x0088	; ????
     13e:	f8 00       	.word	0x00f8	; ????
     140:	42 01       	movw	r8, r4
     142:	fd 00       	.word	0x00fd	; ????
     144:	73 01       	movw	r14, r6
     146:	0b 01       	movw	r0, r22
     148:	48 01       	movw	r8, r16
     14a:	7e 01       	movw	r14, r28
     14c:	e5 01       	movw	r28, r10
     14e:	9b 02       	muls	r25, r27
     150:	07 03       	mulsu	r16, r23
     152:	5a 03       	fmul	r21, r18
     154:	f0 03       	fmuls	r23, r16
     156:	3d 04       	cpc	r3, r13
     158:	bb 04       	cpc	r11, r11
     15a:	ad 04       	cpc	r10, r13
     15c:	5f 04       	cpc	r5, r15
     15e:	62 03       	mulsu	r22, r18
     160:	29 02       	muls	r18, r25
     162:	0a 00       	.word	0x000a	; ????
     164:	ab fe       	.word	0xfeab	; ????
     166:	3f fc       	.word	0xfc3f	; ????
     168:	0f fa       	.word	0xfa0f	; ????
     16a:	fe f7       	brtc	.-2      	; 0x16a <__trampolines_end+0xa6>
     16c:	e0 f6       	brcc	.-72     	; 0x126 <__trampolines_end+0x62>
     16e:	fe f5       	brtc	.+126    	; 0x1ee <__trampolines_end+0x12a>
     170:	61 f5       	brne	.+88     	; 0x1ca <__trampolines_end+0x106>
     172:	0d f5       	brhc	.+66     	; 0x1b6 <__trampolines_end+0xf2>
     174:	0c f5       	brge	.+66     	; 0x1b8 <__trampolines_end+0xf4>
     176:	44 f5       	brge	.+80     	; 0x1c8 <__trampolines_end+0x104>
     178:	6c f5       	brge	.+90     	; 0x1d4 <__trampolines_end+0x110>
     17a:	74 f5       	brge	.+92     	; 0x1d8 <__trampolines_end+0x114>
     17c:	71 f5       	brne	.+92     	; 0x1da <__trampolines_end+0x116>
     17e:	f1 f4       	brne	.+60     	; 0x1bc <__trampolines_end+0xf8>
     180:	44 f4       	brge	.+16     	; 0x192 <__trampolines_end+0xce>
     182:	2f f3       	brie	.-54     	; 0x14e <__trampolines_end+0x8a>
     184:	74 f2       	brlt	.-100    	; 0x122 <__trampolines_end+0x5e>
     186:	b5 f1       	brhs	.+108    	; 0x1f4 <__trampolines_end+0x130>
     188:	65 f2       	brhs	.-104    	; 0x122 <__trampolines_end+0x5e>
     18a:	a5 f3       	brhs	.-24     	; 0x174 <__trampolines_end+0xb0>
     18c:	53 f5       	brvc	.+84     	; 0x1e2 <__trampolines_end+0x11e>
     18e:	70 f8       	bld	r7, 0
     190:	38 fc       	.word	0xfc38	; ????
     192:	65 00       	.word	0x0065	; ????
     194:	28 03       	fmul	r18, r16
     196:	da 06       	cpc	r13, r26
     198:	f5 09       	sbc	r31, r5
     19a:	4f 0c       	add	r4, r15
     19c:	62 0d       	add	r22, r2
     19e:	41 0e       	add	r4, r17
     1a0:	7c 0e       	add	r7, r28
     1a2:	0f 0e       	add	r0, r31
     1a4:	89 0d       	add	r24, r9
     1a6:	80 0c       	add	r8, r0
     1a8:	2d 0b       	sbc	r18, r29
     1aa:	b2 09       	sbc	r27, r2
     1ac:	c5 08       	sbc	r12, r5
     1ae:	4f 07       	cpc	r20, r31
     1b0:	d8 05       	cpc	r29, r8
     1b2:	78 04       	cpc	r7, r8
     1b4:	fd 02       	muls	r31, r29
     1b6:	e2 01       	movw	r28, r4
     1b8:	5e 00       	.word	0x005e	; ????
     1ba:	98 fe       	.word	0xfe98	; ????
     1bc:	f5 fc       	sbrc	r15, 5
     1be:	0c fc       	.word	0xfc0c	; ????
     1c0:	8c fa       	.word	0xfa8c	; ????
     1c2:	71 f9       	bld	r23, 1
     1c4:	82 f8       	bld	r8, 2
     1c6:	13 f8       	bld	r1, 3
     1c8:	a8 f7       	brcc	.-22     	; 0x1b4 <__trampolines_end+0xf0>
     1ca:	6d f7       	brhc	.-38     	; 0x1a6 <__trampolines_end+0xe2>
     1cc:	2b f7       	brvc	.-54     	; 0x198 <__trampolines_end+0xd4>
     1ce:	0e f7       	brtc	.-62     	; 0x192 <__trampolines_end+0xce>
     1d0:	bf f6       	brid	.-82     	; 0x180 <__trampolines_end+0xbc>
     1d2:	66 f6       	brtc	.-104    	; 0x16c <__trampolines_end+0xa8>
     1d4:	b6 f5       	brtc	.+108    	; 0x242 <__trampolines_end+0x17e>
     1d6:	6f f5       	brid	.+90     	; 0x232 <__trampolines_end+0x16e>
     1d8:	2a f5       	brpl	.+74     	; 0x224 <__trampolines_end+0x160>
     1da:	52 f5       	brpl	.+84     	; 0x230 <__trampolines_end+0x16c>
     1dc:	f6 f6       	brtc	.-68     	; 0x19a <__trampolines_end+0xd6>
     1de:	f3 f7       	brvc	.-4      	; 0x1dc <__trampolines_end+0x118>
     1e0:	d0 fa       	bst	r13, 0
     1e2:	1b fe       	.word	0xfe1b	; ????
     1e4:	aa 01       	movw	r20, r20
     1e6:	fe 03       	fmulsu	r23, r22
     1e8:	35 07       	cpc	r19, r21
     1ea:	c8 09       	sbc	r28, r8
     1ec:	88 0b       	sbc	r24, r24
     1ee:	3e 0c       	add	r3, r14
     1f0:	95 0c       	add	r9, r5
     1f2:	1e 0c       	add	r1, r14
     1f4:	18 0b       	sbc	r17, r24
     1f6:	30 0a       	sbc	r3, r16
     1f8:	c5 08       	sbc	r12, r5
     1fa:	7b 07       	cpc	r23, r27
     1fc:	86 06       	cpc	r8, r22
     1fe:	27 06       	cpc	r2, r23
     200:	e8 05       	cpc	r30, r8
     202:	1c 06       	cpc	r1, r28
     204:	ac 06       	cpc	r10, r28
     206:	0e 07       	cpc	r16, r30
     208:	3c 07       	cpc	r19, r28
     20a:	62 07       	cpc	r22, r18
     20c:	ea 06       	cpc	r14, r26
     20e:	5e 06       	cpc	r5, r30
     210:	91 05       	cpc	r25, r1
     212:	67 04       	cpc	r6, r7
     214:	e7 02       	muls	r30, r23
     216:	e8 00       	.word	0x00e8	; ????
     218:	74 ff       	sbrs	r23, 4
     21a:	c5 fc       	sbrc	r12, 5
     21c:	ac f9       	.word	0xf9ac	; ????
     21e:	dc f5       	brge	.+118    	; 0x296 <__trampolines_end+0x1d2>
     220:	34 f3       	brlt	.-52     	; 0x1ee <__trampolines_end+0x12a>
     222:	3d ef       	ldi	r19, 0xFD	; 253
     224:	9d eb       	ldi	r25, 0xBD	; 189
     226:	39 e8       	ldi	r19, 0x89	; 137
     228:	36 e6       	ldi	r19, 0x66	; 102
     22a:	08 e4       	ldi	r16, 0x48	; 72
     22c:	59 e3       	ldi	r21, 0x39	; 57
     22e:	92 e4       	ldi	r25, 0x42	; 66
     230:	9c e6       	ldi	r25, 0x6C	; 108
     232:	52 eb       	ldi	r21, 0xB2	; 178
     234:	80 f1       	brcs	.+96     	; 0x296 <__trampolines_end+0x1d2>
     236:	c3 f8       	bld	r12, 3
     238:	e8 fd       	.word	0xfde8	; ????
     23a:	00 06       	cpc	r0, r16
     23c:	23 0d       	add	r18, r3
     23e:	2e 13       	cpse	r18, r30
     240:	7c 16       	cp	r7, r28
     242:	da 19       	sub	r29, r10
     244:	af 1b       	sub	r26, r31
     246:	f1 1b       	sub	r31, r17
     248:	56 1b       	sub	r21, r22
     24a:	70 19       	sub	r23, r0
     24c:	e9 16       	cp	r14, r25
     24e:	d1 13       	cpse	r29, r17
     250:	ab 11       	cpse	r26, r11
     252:	76 0e       	add	r7, r22
     254:	4f 0b       	sbc	r20, r31
     256:	a5 08       	sbc	r10, r5
     258:	17 06       	cpc	r1, r23
     25a:	a6 04       	cpc	r10, r6
     25c:	ab 02       	muls	r26, r27
     25e:	0d 01       	movw	r0, r26
     260:	78 ff       	.word	0xff78	; ????
     262:	3f fe       	.word	0xfe3f	; ????
     264:	da fc       	.word	0xfcda	; ????
     266:	12 fb       	bst	r17, 2
     268:	1a f9       	.word	0xf91a	; ????
     26a:	b3 f7       	brvc	.-20     	; 0x258 <__trampolines_end+0x194>
     26c:	fb f4       	brvc	.+62     	; 0x2ac <__trampolines_end+0x1e8>
     26e:	4c f2       	brlt	.-110    	; 0x202 <__trampolines_end+0x13e>
     270:	60 ef       	ldi	r22, 0xF0	; 240
     272:	55 ed       	ldi	r21, 0xD5	; 213
     274:	ba ea       	ldi	r27, 0xAA	; 170
     276:	26 e8       	ldi	r18, 0x86	; 134
     278:	79 e5       	ldi	r23, 0x59	; 89
     27a:	d6 e3       	ldi	r29, 0x36	; 54
     27c:	33 e2       	ldi	r19, 0x23	; 35
     27e:	bc e2       	ldi	r27, 0x2C	; 44
     280:	85 e4       	ldi	r24, 0x45	; 69
     282:	54 e7       	ldi	r21, 0x74	; 116
     284:	a3 ed       	ldi	r26, 0xD3	; 211
     286:	ed f4       	brhc	.+58     	; 0x2c2 <__trampolines_end+0x1fe>
     288:	52 fd       	sbrc	r21, 2
     28a:	e8 02       	muls	r30, r24
     28c:	03 0b       	sbc	r16, r19
     28e:	5e 11       	cpse	r21, r14
     290:	22 16       	cp	r2, r18
     292:	01 18       	sub	r0, r1
     294:	36 19       	sub	r19, r6
     296:	d5 18       	sub	r13, r5
     298:	35 17       	cp	r19, r21
     29a:	bf 15       	cp	r27, r15
     29c:	17 13       	cpse	r17, r23
     29e:	44 10       	cpse	r4, r4
     2a0:	e8 0d       	add	r30, r8
     2a2:	f3 0b       	sbc	r31, r19
     2a4:	ce 0a       	sbc	r12, r30
     2a6:	97 09       	sbc	r25, r7
     2a8:	ba 08       	sbc	r11, r10
     2aa:	d3 07       	cpc	r29, r19
     2ac:	56 07       	cpc	r21, r22
     2ae:	99 06       	cpc	r9, r25
     2b0:	76 05       	cpc	r23, r6
     2b2:	36 04       	cpc	r3, r6
     2b4:	11 03       	mulsu	r17, r17
     2b6:	09 01       	movw	r0, r18
     2b8:	a8 fe       	.word	0xfea8	; ????
     2ba:	c6 fb       	bst	r28, 6
     2bc:	bf f9       	.word	0xf9bf	; ????
     2be:	7b f6       	brvc	.-98     	; 0x25e <__trampolines_end+0x19a>
     2c0:	53 f3       	brvs	.-44     	; 0x296 <__trampolines_end+0x1d2>
     2c2:	88 f0       	brcs	.+34     	; 0x2e6 <__trampolines_end+0x222>
     2c4:	03 ef       	ldi	r16, 0xF3	; 243
     2c6:	ca ec       	ldi	r28, 0xCA	; 202
     2c8:	e2 ea       	ldi	r30, 0xA2	; 162
     2ca:	48 e9       	ldi	r20, 0x98	; 152
     2cc:	db e7       	ldi	r29, 0x7B	; 123
     2ce:	98 e5       	ldi	r25, 0x58	; 88
     2d0:	1f e5       	ldi	r17, 0x5F	; 95
     2d2:	5a e6       	ldi	r21, 0x6A	; 106
     2d4:	98 e8       	ldi	r25, 0x88	; 136
     2d6:	d8 ed       	ldi	r29, 0xD8	; 216
     2d8:	03 f5       	brvc	.+64     	; 0x31a <__trampolines_end+0x256>
     2da:	92 fd       	sbrc	r25, 2
     2dc:	34 03       	mulsu	r19, r20
     2de:	b8 0b       	sbc	r27, r24
     2e0:	89 12       	cpse	r8, r25
     2e2:	71 17       	cp	r23, r17
     2e4:	51 19       	sub	r21, r1
     2e6:	2d 1a       	sub	r2, r29
     2e8:	1c 19       	sub	r17, r12
     2ea:	bb 16       	cp	r11, r27
     2ec:	ba 14       	cp	r11, r10
     2ee:	77 11       	cpse	r23, r7
     2f0:	68 0e       	add	r6, r24
     2f2:	25 0c       	add	r2, r5
     2f4:	1c 0b       	sbc	r17, r28
     2f6:	c9 0a       	sbc	r12, r25
     2f8:	4b 0b       	sbc	r20, r27
     2fa:	35 0c       	add	r3, r5
     2fc:	40 0d       	add	r20, r0
     2fe:	b4 0d       	add	r27, r4
     300:	e6 0d       	add	r30, r6
     302:	da 0c       	add	r13, r10
     304:	bc 0a       	sbc	r11, r28
     306:	bb 08       	sbc	r11, r11
     308:	d4 04       	cpc	r13, r4
     30a:	fb ff       	.word	0xfffb	; ????
     30c:	b0 fa       	bst	r11, 0
     30e:	09 f7       	brne	.-62     	; 0x2d2 <__trampolines_end+0x20e>
     310:	9d f1       	brhs	.+102    	; 0x378 <__trampolines_end+0x2b4>
     312:	72 ec       	ldi	r23, 0xC2	; 194
     314:	dc e7       	ldi	r29, 0x7C	; 124
     316:	21 e5       	ldi	r18, 0x51	; 81
     318:	1a e2       	ldi	r17, 0x2A	; 42
     31a:	6e df       	rcall	.-292    	; 0x1f8 <__trampolines_end+0x134>
     31c:	84 dd       	rcall	.-1272   	; 0xfffffe26 <__eeprom_end+0xff7efe26>
     31e:	2c dc       	rcall	.-1960   	; 0xfffffb78 <__eeprom_end+0xff7efb78>
     320:	9e da       	rcall	.-2756   	; 0xfffff85e <__eeprom_end+0xff7ef85e>
     322:	62 da       	rcall	.-2876   	; 0xfffff7e8 <__eeprom_end+0xff7ef7e8>
     324:	21 dc       	rcall	.-1982   	; 0xfffffb68 <__eeprom_end+0xff7efb68>
     326:	ee de       	rcall	.-548    	; 0x104 <__trampolines_end+0x40>
     328:	5f e5       	ldi	r21, 0x5F	; 95
     32a:	d8 ee       	ldi	r29, 0xE8	; 232
     32c:	76 f9       	bld	r23, 6
     32e:	1a 01       	movw	r2, r20
     330:	12 0c       	add	r1, r2
     332:	76 15       	cp	r23, r6
     334:	05 1c       	adc	r0, r5
     336:	b4 1e       	adc	r11, r20
     338:	66 20       	and	r6, r6
     33a:	6d 1f       	adc	r22, r29
     33c:	cb 1c       	adc	r12, r11
     33e:	5b 1a       	sub	r5, r27
     340:	8b 16       	cp	r8, r27
     342:	e0 12       	cpse	r14, r16
     344:	1d 10       	cpse	r1, r13
     346:	b4 0e       	add	r11, r20
     348:	68 0e       	add	r6, r24
     34a:	ae 0e       	add	r10, r30
     34c:	4c 0f       	add	r20, r28
     34e:	c9 0f       	add	r28, r25
     350:	a2 0f       	add	r26, r18
     352:	d5 0e       	add	r13, r21
     354:	fc 0c       	add	r15, r12
     356:	0c 0a       	sbc	r0, r28
     358:	7d 07       	cpc	r23, r29
     35a:	16 03       	mulsu	r17, r22
     35c:	cd fd       	.word	0xfdcd	; ????
     35e:	dc f8       	.word	0xf8dc	; ????
     360:	78 f5       	brcc	.+94     	; 0x3c0 <__trampolines_end+0x2fc>
     362:	08 f1       	brcs	.+66     	; 0x3a6 <__trampolines_end+0x2e2>
     364:	d3 ec       	ldi	r29, 0xC3	; 195
     366:	95 e9       	ldi	r25, 0x95	; 149
     368:	9e e7       	ldi	r25, 0x7E	; 126
     36a:	b3 e5       	ldi	r27, 0x53	; 83
     36c:	5b e4       	ldi	r21, 0x4B	; 75
     36e:	f4 e2       	ldi	r31, 0x24	; 36
     370:	27 e2       	ldi	r18, 0x27	; 39
     372:	13 e0       	ldi	r17, 0x03	; 3
     374:	f2 dd       	rcall	.-1052   	; 0xffffff5a <__eeprom_end+0xff7eff5a>
     376:	4a de       	rcall	.-876    	; 0xc <__FUSE_REGION_LENGTH__+0x9>
     378:	a3 df       	rcall	.-186    	; 0x2c0 <__trampolines_end+0x1fc>
     37a:	f6 e3       	ldi	r31, 0x36	; 54
     37c:	bc eb       	ldi	r27, 0xBC	; 188
     37e:	39 f5       	brne	.+78     	; 0x3ce <__trampolines_end+0x30a>
     380:	79 fc       	.word	0xfc79	; ????
     382:	54 06       	cpc	r5, r20
     384:	73 0f       	add	r23, r19
     386:	7f 15       	cp	r23, r15
     388:	f8 17       	cp	r31, r24
     38a:	e4 18       	sub	r14, r4
     38c:	54 17       	cp	r21, r20
     38e:	8e 14       	cp	r8, r14
     390:	99 12       	cpse	r9, r25
     392:	ec 0f       	add	r30, r28
     394:	0c 0e       	add	r0, r28
     396:	9b 0d       	add	r25, r11
     398:	c8 0e       	add	r12, r24
     39a:	43 10       	cpse	r4, r3
     39c:	f5 12       	cpse	r15, r21
     39e:	65 15       	cp	r22, r5
     3a0:	00 17       	cp	r16, r16
     3a2:	36 17       	cp	r19, r22
     3a4:	32 16       	cp	r3, r18
     3a6:	9b 13       	cpse	r25, r27
     3a8:	18 0f       	add	r17, r24
     3aa:	95 0b       	sbc	r25, r21
     3ac:	86 05       	cpc	r24, r6
     3ae:	82 ff       	sbrs	r24, 2
     3b0:	37 fa       	bst	r3, 7
     3b2:	15 f7       	brhc	.-60     	; 0x378 <__trampolines_end+0x2b4>
     3b4:	75 f3       	brhs	.-36     	; 0x392 <__trampolines_end+0x2ce>
     3b6:	5d f0       	brhs	.+22     	; 0x3ce <__trampolines_end+0x30a>
     3b8:	39 ee       	ldi	r19, 0xE9	; 233
     3ba:	e0 ec       	ldi	r30, 0xC0	; 192
     3bc:	35 eb       	ldi	r19, 0xB5	; 181
     3be:	54 e9       	ldi	r21, 0x94	; 148
     3c0:	fd e6       	ldi	r31, 0x6D	; 109
     3c2:	c6 e4       	ldi	r28, 0x46	; 70
     3c4:	1c e1       	ldi	r17, 0x1C	; 28
     3c6:	7c dc       	rcall	.-1800   	; 0xfffffcc0 <__eeprom_end+0xff7efcc0>
     3c8:	d1 da       	rcall	.-2654   	; 0xfffff96c <__eeprom_end+0xff7ef96c>
     3ca:	6d db       	rcall	.-2342   	; 0xfffffaa6 <__eeprom_end+0xff7efaa6>
     3cc:	f3 df       	rcall	.-26     	; 0x3b4 <__trampolines_end+0x2f0>
     3ce:	93 e9       	ldi	r25, 0x93	; 147
     3d0:	24 f6       	brge	.-120    	; 0x35a <__trampolines_end+0x296>
     3d2:	03 00       	.word	0x0003	; ????
     3d4:	e5 0d       	add	r30, r5
     3d6:	ec 19       	sub	r30, r12
     3d8:	0d 21       	and	r16, r13
     3da:	b3 22       	and	r11, r19
     3dc:	95 21       	and	r25, r5
     3de:	39 1c       	adc	r3, r9
     3e0:	4f 15       	cp	r20, r15
     3e2:	80 0e       	add	r8, r16
     3e4:	3f 0b       	sbc	r19, r31
     3e6:	58 08       	sbc	r5, r8
     3e8:	a8 08       	sbc	r10, r8
     3ea:	ce 0b       	sbc	r28, r30
     3ec:	c7 0e       	add	r12, r23
     3ee:	fd 13       	cpse	r31, r29
     3f0:	29 18       	sub	r2, r9
     3f2:	1e 1a       	sub	r1, r30
     3f4:	a5 19       	sub	r26, r5
     3f6:	24 16       	cp	r2, r20
     3f8:	b7 0f       	add	r27, r23
     3fa:	3f 07       	cpc	r19, r31
     3fc:	35 01       	movw	r6, r10
     3fe:	b6 f8       	bld	r11, 6
     400:	25 f2       	brhs	.-120    	; 0x38a <__trampolines_end+0x2c6>
     402:	f3 ed       	ldi	r31, 0xD3	; 211
     404:	18 ed       	ldi	r17, 0xD8	; 216
     406:	01 ed       	ldi	r16, 0xD1	; 209
     408:	41 ee       	ldi	r20, 0xE1	; 225
     40a:	17 ef       	ldi	r17, 0xF7	; 247
     40c:	fb ee       	ldi	r31, 0xEB	; 235
     40e:	92 ee       	ldi	r25, 0xE2	; 226
     410:	53 ec       	ldi	r21, 0xC3	; 195
     412:	40 e8       	ldi	r20, 0x80	; 128
     414:	d8 e4       	ldi	r29, 0x48	; 72
     416:	ab de       	rcall	.-682    	; 0x16e <__trampolines_end+0xaa>
     418:	00 d8       	rcall	.-4096   	; 0xfffff41a <__eeprom_end+0xff7ef41a>
     41a:	db d3       	rcall	.+1974   	; 0xbd2 <__stack+0xd3>
     41c:	58 d4       	rcall	.+2224   	; 0xcce <__stack+0x1cf>
     41e:	78 d8       	rcall	.-3856   	; 0xfffff510 <__eeprom_end+0xff7ef510>
     420:	e2 e3       	ldi	r30, 0x32	; 50
     422:	e5 f2       	brhs	.-72     	; 0x3dc <__trampolines_end+0x318>
     424:	3a fe       	.word	0xfe3a	; ????
     426:	ac 0e       	add	r10, r28
     428:	92 1b       	sub	r25, r18
     42a:	80 23       	and	r24, r16
     42c:	45 24       	eor	r4, r5
     42e:	4b 21       	and	r20, r11
     430:	de 19       	sub	r29, r14
     432:	58 11       	cpse	r21, r8
     434:	6d 09       	sbc	r22, r13
     436:	ab 05       	cpc	r26, r11
     438:	9b 03       	fmulsu	r17, r19
     43a:	40 05       	cpc	r20, r0
     43c:	5c 0a       	sbc	r5, r28
     43e:	ac 0e       	add	r10, r28
     440:	25 16       	cp	r2, r21
     442:	31 1c       	adc	r3, r1
     444:	6c 1f       	adc	r22, r28
     446:	9b 1f       	adc	r25, r27
     448:	99 1c       	adc	r9, r9
     44a:	72 16       	cp	r7, r18
     44c:	63 0d       	add	r22, r3
     44e:	49 07       	cpc	r20, r25
     450:	98 fe       	.word	0xfe98	; ????
     452:	e6 f7       	brtc	.-8      	; 0x44c <__LOCK_REGION_LENGTH__+0x4c>
     454:	13 f4       	brvc	.+4      	; 0x45a <__LOCK_REGION_LENGTH__+0x5a>
     456:	2e f3       	brts	.-54     	; 0x422 <__LOCK_REGION_LENGTH__+0x22>
     458:	95 f3       	brhs	.-28     	; 0x43e <__LOCK_REGION_LENGTH__+0x3e>
     45a:	09 f4       	brne	.+2      	; 0x45e <__LOCK_REGION_LENGTH__+0x5e>
     45c:	80 f4       	brcc	.+32     	; 0x47e <__LOCK_REGION_LENGTH__+0x7e>
     45e:	6f f3       	brie	.-38     	; 0x43a <__LOCK_REGION_LENGTH__+0x3a>
     460:	91 f0       	breq	.+36     	; 0x486 <__LOCK_REGION_LENGTH__+0x86>
     462:	1f eb       	ldi	r17, 0xBF	; 191
     464:	dc e4       	ldi	r29, 0x4C	; 76
     466:	6a e0       	ldi	r22, 0x0A	; 10
     468:	ce d8       	rcall	.-3684   	; 0xfffff606 <__eeprom_end+0xff7ef606>
     46a:	69 d2       	rcall	.+1234   	; 0x93e <__LOCK_REGION_LENGTH__+0x53e>
     46c:	fd cd       	rjmp	.-1030   	; 0x68 <__SREG__+0x29>
     46e:	86 cf       	rjmp	.-244    	; 0x37c <__trampolines_end+0x2b8>
     470:	8a d6       	rcall	.+3348   	; 0x1186 <__stack+0x687>
     472:	74 e4       	ldi	r23, 0x44	; 68
     474:	8a f7       	brpl	.-30     	; 0x458 <__LOCK_REGION_LENGTH__+0x58>
     476:	30 04       	cpc	r3, r0
     478:	34 17       	cp	r19, r20
     47a:	c4 22       	and	r12, r20
     47c:	9b 28       	or	r9, r11
     47e:	11 27       	eor	r17, r17
     480:	22 1f       	adc	r18, r18
     482:	aa 13       	cpse	r26, r26
     484:	e3 07       	cpc	r30, r19
     486:	96 00       	.word	0x0096	; ????
     488:	2d fe       	.word	0xfe2d	; ????
     48a:	5a 00       	.word	0x005a	; ????
     48c:	8c 06       	cpc	r8, r28
     48e:	60 0f       	add	r22, r16
     490:	62 15       	cp	r22, r2
     492:	c1 1b       	sub	r28, r17
     494:	d5 1e       	adc	r13, r21
     496:	3a 1c       	adc	r3, r10
     498:	8e 18       	sub	r8, r14
     49a:	fd 0f       	add	r31, r29
     49c:	19 07       	cpc	r17, r25
     49e:	c8 fe       	.word	0xfec8	; ????
     4a0:	9c fb       	.word	0xfb9c	; ????
     4a2:	16 fa       	bst	r1, 6
     4a4:	da fb       	.word	0xfbda	; ????
     4a6:	7d 00       	.word	0x007d	; ????
     4a8:	4e 03       	fmul	r20, r22
     4aa:	d0 06       	cpc	r13, r16
     4ac:	d7 04       	cpc	r13, r7
     4ae:	e7 fe       	sbrs	r14, 7
     4b0:	6c f8       	.word	0xf86c	; ????
     4b2:	43 ec       	ldi	r20, 0xC3	; 195
     4b4:	2f e0       	ldi	r18, 0x0F	; 15
     4b6:	6d d6       	rcall	.+3290   	; 0x1192 <__stack+0x693>
     4b8:	f2 d1       	rcall	.+996    	; 0x89e <__LOCK_REGION_LENGTH__+0x49e>
     4ba:	33 cd       	rjmp	.-1434   	; 0xffffff22 <__eeprom_end+0xff7eff22>
     4bc:	39 cb       	rjmp	.-2446   	; 0xfffffb30 <__eeprom_end+0xff7efb30>
     4be:	7a ca       	rjmp	.-2828   	; 0xfffff9b4 <__eeprom_end+0xff7ef9b4>
     4c0:	8d cc       	rjmp	.-1766   	; 0xfffffddc <__eeprom_end+0xff7efddc>
     4c2:	f0 d4       	rcall	.+2528   	; 0xea4 <__stack+0x3a5>
     4c4:	ee e0       	ldi	r30, 0x0E	; 14
     4c6:	e6 f1       	brts	.+120    	; 0x540 <__LOCK_REGION_LENGTH__+0x140>
     4c8:	71 fc       	sbrc	r7, 1
     4ca:	61 0c       	add	r6, r1
     4cc:	67 16       	cp	r6, r23
     4ce:	26 1b       	sub	r18, r22
     4d0:	ce 1a       	sub	r12, r30
     4d2:	16 15       	cp	r17, r6
     4d4:	bb 0e       	add	r11, r27
     4d6:	27 08       	sbc	r2, r7
     4d8:	e1 05       	cpc	r30, r1
     4da:	e1 05       	cpc	r30, r1
     4dc:	86 09       	sbc	r24, r6
     4de:	fe 0e       	add	r15, r30
     4e0:	35 15       	cp	r19, r5
     4e2:	ec 18       	sub	r14, r12
     4e4:	5e 1c       	adc	r5, r14
     4e6:	6f 1d       	adc	r22, r15
     4e8:	16 1b       	sub	r17, r22
     4ea:	49 18       	sub	r4, r9
     4ec:	50 12       	cpse	r5, r16
     4ee:	99 0c       	add	r9, r9
     4f0:	9f 07       	cpc	r25, r31
     4f2:	0f 06       	cpc	r0, r31
     4f4:	a6 05       	cpc	r26, r6
     4f6:	3f 07       	cpc	r19, r31
     4f8:	6a 09       	sbc	r22, r10
     4fa:	1a 09       	sbc	r17, r10
     4fc:	25 07       	cpc	r18, r21
     4fe:	4a 00       	.word	0x004a	; ????
     500:	d3 f6       	brvc	.-76     	; 0x4b6 <__LOCK_REGION_LENGTH__+0xb6>
     502:	d5 ef       	ldi	r29, 0xF5	; 245
     504:	d6 e5       	ldi	r29, 0x56	; 86
     506:	90 de       	rcall	.-736    	; 0x228 <__trampolines_end+0x164>
     508:	16 d9       	rcall	.-3540   	; 0xfffff736 <__eeprom_end+0xff7ef736>
     50a:	44 d7       	rcall	.+3720   	; 0x1394 <__stack+0x895>
     50c:	71 d4       	rcall	.+2274   	; 0xdf0 <__stack+0x2f1>
     50e:	47 d1       	rcall	.+654    	; 0x79e <__LOCK_REGION_LENGTH__+0x39e>
     510:	6d cc       	rjmp	.-1830   	; 0xfffffdec <__eeprom_end+0xff7efdec>
     512:	3a ca       	rjmp	.-2956   	; 0xfffff988 <__eeprom_end+0xff7ef988>
     514:	8a d0       	rcall	.+276    	; 0x62a <__LOCK_REGION_LENGTH__+0x22a>
     516:	27 db       	rcall	.-2482   	; 0xfffffb66 <__eeprom_end+0xff7efb66>
     518:	22 f0       	brmi	.+8      	; 0x522 <__LOCK_REGION_LENGTH__+0x122>
     51a:	b5 fd       	sbrc	r27, 5
     51c:	87 10       	cpse	r8, r7
     51e:	9a 1a       	sub	r9, r26
     520:	1c 19       	sub	r17, r12
     522:	cf 0f       	add	r28, r31
     524:	a1 05       	cpc	r26, r1
     526:	e7 fa       	bst	r14, 7
     528:	6c f5       	brge	.+90     	; 0x584 <__LOCK_REGION_LENGTH__+0x184>
     52a:	56 fa       	bst	r5, 6
     52c:	c4 00       	.word	0x00c4	; ????
     52e:	9b 0c       	add	r9, r11
     530:	b8 16       	cp	r11, r24
     532:	ad 1a       	sub	r10, r29
     534:	3f 1a       	sub	r3, r31
     536:	b6 15       	cp	r27, r6
     538:	62 10       	cpse	r6, r2
     53a:	d6 0c       	add	r13, r6
     53c:	da 0c       	add	r13, r10
     53e:	90 0e       	add	r9, r16
     540:	1e 13       	cpse	r17, r30
     542:	6c 16       	cp	r6, r28
     544:	36 17       	cp	r19, r22
     546:	de 16       	cp	r13, r30
     548:	f2 11       	cpse	r31, r2
     54a:	ea 0c       	add	r14, r10
     54c:	49 08       	sbc	r4, r9
     54e:	39 02       	muls	r19, r25
     550:	c3 fc       	sbrc	r12, 3
     552:	96 f7       	brtc	.-28     	; 0x538 <__LOCK_REGION_LENGTH__+0x138>
     554:	3a f5       	brpl	.+78     	; 0x5a4 <__LOCK_REGION_LENGTH__+0x1a4>
     556:	94 ef       	ldi	r25, 0xF4	; 244
     558:	f0 ea       	ldi	r31, 0xA0	; 160
     55a:	69 e3       	ldi	r22, 0x39	; 57
     55c:	53 de       	rcall	.-858    	; 0x204 <__trampolines_end+0x140>
     55e:	fa d6       	rcall	.+3572   	; 0x1354 <__stack+0x855>
     560:	83 ce       	rjmp	.-762    	; 0x268 <__trampolines_end+0x1a4>
     562:	71 c8       	rjmp	.-3870   	; 0xfffff646 <__eeprom_end+0xff7ef646>
     564:	d3 c3       	rjmp	.+1958   	; 0xd0c <__stack+0x20d>
     566:	36 cb       	rjmp	.-2452   	; 0xfffffbd4 <__eeprom_end+0xff7efbd4>
     568:	1f da       	rcall	.-3010   	; 0xfffff9a8 <__eeprom_end+0xff7ef9a8>
     56a:	d7 f3       	brie	.-12     	; 0x560 <__LOCK_REGION_LENGTH__+0x160>
     56c:	6a 05       	cpc	r22, r10
     56e:	4a 17       	cp	r20, r26
     570:	d8 20       	and	r13, r8
     572:	fd 17       	cp	r31, r29
     574:	54 0b       	sbc	r21, r20
     576:	81 00       	.word	0x0081	; ????
     578:	14 f6       	brge	.-124    	; 0x4fe <__LOCK_REGION_LENGTH__+0xfe>
     57a:	9f f6       	brid	.-90     	; 0x522 <__LOCK_REGION_LENGTH__+0x122>
     57c:	1a ff       	.word	0xff1a	; ????
     57e:	7d 08       	sbc	r7, r13
     580:	ec 12       	cpse	r14, r28
     582:	23 18       	sub	r2, r3
     584:	a9 14       	cp	r10, r9
     586:	fb 0f       	add	r31, r27
     588:	d2 09       	sbc	r29, r2
     58a:	79 06       	cpc	r7, r25
     58c:	6b 0b       	sbc	r22, r27
     58e:	d8 10       	cpse	r13, r8
     590:	02 1c       	adc	r0, r2
     592:	fe 23       	and	r31, r30
     594:	66 26       	eor	r6, r22
     596:	0d 23       	and	r16, r29
     598:	29 19       	sub	r18, r9
     59a:	6e 0d       	add	r22, r14
     59c:	41 04       	cpc	r4, r1
     59e:	ee 02       	muls	r30, r30
     5a0:	01 03       	mulsu	r16, r17
     5a2:	b2 07       	cpc	r27, r18
     5a4:	54 05       	cpc	r21, r4
     5a6:	25 01       	movw	r4, r10
     5a8:	04 f3       	brlt	.-64     	; 0x56a <__LOCK_REGION_LENGTH__+0x16a>
     5aa:	d4 e3       	ldi	r29, 0x34	; 52
     5ac:	79 d7       	rcall	.+3826   	; 0x14a0 <__stack+0x9a1>
     5ae:	b8 d2       	rcall	.+1392   	; 0xb20 <__stack+0x21>
     5b0:	ea d2       	rcall	.+1492   	; 0xb86 <__stack+0x87>
     5b2:	13 d3       	rcall	.+1574   	; 0xbda <__stack+0xdb>
     5b4:	07 d2       	rcall	.+1038   	; 0x9c4 <__LOCK_REGION_LENGTH__+0x5c4>
     5b6:	f0 ce       	rjmp	.-544    	; 0x398 <__trampolines_end+0x2d4>
     5b8:	6a ce       	rjmp	.-812    	; 0x28e <__trampolines_end+0x1ca>
     5ba:	e9 db       	rcall	.-2094   	; 0xfffffd8e <__eeprom_end+0xff7efd8e>
     5bc:	72 f0       	brmi	.+28     	; 0x5da <__LOCK_REGION_LENGTH__+0x1da>
     5be:	ab 05       	cpc	r26, r11
     5c0:	28 1a       	sub	r2, r24
     5c2:	23 26       	eor	r2, r19
     5c4:	f1 1b       	sub	r31, r17
     5c6:	fd 0a       	sbc	r15, r29
     5c8:	7b fe       	.word	0xfe7b	; ????
     5ca:	69 ef       	ldi	r22, 0xF9	; 249
     5cc:	fc f0       	brlt	.+62     	; 0x60c <__LOCK_REGION_LENGTH__+0x20c>
     5ce:	51 f9       	bld	r21, 1
     5d0:	5c 02       	muls	r21, r28
     5d2:	62 0b       	sbc	r22, r18
     5d4:	3b 0e       	add	r3, r27
     5d6:	f2 09       	sbc	r31, r2
     5d8:	60 06       	cpc	r6, r16
     5da:	80 04       	cpc	r8, r0
     5dc:	99 07       	cpc	r25, r25
     5de:	75 10       	cpse	r7, r5
     5e0:	31 16       	cp	r3, r17
     5e2:	89 1c       	adc	r8, r9
     5e4:	a5 1c       	adc	r10, r5
     5e6:	67 17       	cp	r22, r23
     5e8:	ce 11       	cpse	r28, r14
     5ea:	13 09       	sbc	r17, r3
     5ec:	15 07       	cpc	r17, r21
     5ee:	22 06       	cpc	r2, r18
     5f0:	f7 09       	sbc	r31, r7
     5f2:	f2 09       	sbc	r31, r2
     5f4:	e4 06       	cpc	r14, r20
     5f6:	1c fa       	.word	0xfa1c	; ????
     5f8:	5d f1       	brhs	.+86     	; 0x650 <__LOCK_REGION_LENGTH__+0x250>
     5fa:	d3 e6       	ldi	r29, 0x63	; 99
     5fc:	5e de       	rcall	.-836    	; 0x2ba <__trampolines_end+0x1f6>
     5fe:	f6 de       	rcall	.-532    	; 0x3ec <__trampolines_end+0x328>
     600:	7d dd       	rcall	.-1286   	; 0xfc <__trampolines_end+0x38>
     602:	6a dc       	rcall	.-1836   	; 0xfffffed8 <__eeprom_end+0xff7efed8>
     604:	cf d4       	rcall	.+2462   	; 0xfa4 <__stack+0x4a5>
     606:	e9 c9       	rjmp	.-3118   	; 0xfffff9da <__eeprom_end+0xff7ef9da>
     608:	1f c2       	rjmp	.+1086   	; 0xa48 <__LOCK_REGION_LENGTH__+0x648>
     60a:	2f ba       	out	0x1f, r2	; 31
     60c:	35 cb       	rjmp	.-2454   	; 0xfffffc78 <__eeprom_end+0xff7efc78>
     60e:	f5 e4       	ldi	r31, 0x45	; 69
     610:	13 fe       	sbrs	r1, 3
     612:	7a 1a       	sub	r7, r26
     614:	de 21       	and	r29, r14
     616:	09 19       	sub	r16, r9
     618:	21 03       	mulsu	r18, r17
     61a:	8a fb       	.word	0xfb8a	; ????
     61c:	e2 f3       	brmi	.-8      	; 0x616 <__LOCK_REGION_LENGTH__+0x216>
     61e:	aa fc       	.word	0xfcaa	; ????
     620:	05 07       	cpc	r16, r21
     622:	ce 0b       	sbc	r28, r30
     624:	89 0c       	add	r8, r9
     626:	0b 04       	cpc	r0, r11
     628:	3f fe       	.word	0xfe3f	; ????
     62a:	24 fd       	sbrc	r18, 4
     62c:	da 04       	cpc	r13, r10
     62e:	c4 10       	cpse	r12, r4
     630:	8c 1b       	sub	r24, r28
     632:	f2 1d       	adc	r31, r2
     634:	3b 1b       	sub	r19, r27
     636:	56 14       	cp	r5, r6
     638:	81 0e       	add	r8, r17
     63a:	27 0f       	add	r18, r23
     63c:	3f 10       	cpse	r3, r15
     63e:	9e 15       	cp	r25, r14
     640:	94 13       	cpse	r25, r20
     642:	21 10       	cpse	r2, r1
     644:	bc 05       	cpc	r27, r12
     646:	db f8       	.word	0xf8db	; ????
     648:	6a ef       	ldi	r22, 0xFA	; 250
     64a:	bc ea       	ldi	r27, 0xAC	; 172
     64c:	74 ec       	ldi	r23, 0xC4	; 196
     64e:	91 ec       	ldi	r25, 0xC1	; 193
     650:	aa ec       	ldi	r26, 0xCA	; 202
     652:	b3 e6       	ldi	r27, 0x63	; 99
     654:	5c d8       	rcall	.-3912   	; 0xfffff70e <__eeprom_end+0xff7ef70e>
     656:	df c7       	rjmp	.+4030   	; 0x1616 <__stack+0xb17>
     658:	21 ba       	out	0x11, r2	; 17
     65a:	32 b8       	out	0x02, r3	; 2
     65c:	52 b7       	in	r21, 0x32	; 50
     65e:	b2 d4       	rcall	.+2404   	; 0xfc4 <__stack+0x4c5>
     660:	6a f1       	brmi	.+90     	; 0x6bc <__LOCK_REGION_LENGTH__+0x2bc>
     662:	7b 14       	cp	r7, r11
     664:	78 20       	and	r7, r8
     666:	6f 1e       	adc	r6, r31
     668:	10 13       	cpse	r17, r16
     66a:	96 fd       	sbrc	r25, 6
     66c:	4d f8       	.word	0xf84d	; ????
     66e:	36 f5       	brtc	.+76     	; 0x6bc <__LOCK_REGION_LENGTH__+0x2bc>
     670:	50 fb       	bst	r21, 0
     672:	8d 02       	muls	r24, r29
     674:	5d 03       	fmul	r21, r21
     676:	ac 02       	muls	r26, r28
     678:	82 fd       	sbrc	r24, 2
     67a:	84 ff       	sbrs	r24, 4
     67c:	8a 02       	muls	r24, r26
     67e:	74 0d       	add	r23, r4
     680:	aa 18       	sub	r10, r10
     682:	2a 1e       	adc	r2, r26
     684:	af 1e       	adc	r10, r31
     686:	d6 17       	cp	r29, r22
     688:	3b 12       	cpse	r3, r27
     68a:	b5 0c       	add	r11, r5
     68c:	94 0f       	add	r25, r20
     68e:	a7 12       	cpse	r10, r23
     690:	34 16       	cp	r3, r20
     692:	fb 12       	cpse	r15, r27
     694:	f9 0b       	sbc	r31, r25
     696:	1b 00       	.word	0x001b	; ????
     698:	54 f5       	brge	.+84     	; 0x6ee <__LOCK_REGION_LENGTH__+0x2ee>
     69a:	19 f2       	breq	.-122    	; 0x622 <__LOCK_REGION_LENGTH__+0x222>
     69c:	27 f2       	brie	.-120    	; 0x626 <__LOCK_REGION_LENGTH__+0x226>
     69e:	fc f8       	.word	0xf8fc	; ????
     6a0:	ab f9       	.word	0xf9ab	; ????
     6a2:	78 f1       	brcs	.+94     	; 0x702 <__LOCK_REGION_LENGTH__+0x302>
     6a4:	b5 e8       	ldi	r27, 0x85	; 133
     6a6:	eb d6       	rcall	.+3542   	; 0x147e <__stack+0x97f>
     6a8:	8e cb       	rjmp	.-2276   	; 0xfffffdc6 <__eeprom_end+0xff7efdc6>
     6aa:	63 c3       	rjmp	.+1734   	; 0xd72 <__stack+0x273>
     6ac:	32 c2       	rjmp	.+1124   	; 0xb12 <__stack+0x13>
     6ae:	52 c0       	rjmp	.+164    	; 0x754 <__LOCK_REGION_LENGTH__+0x354>
     6b0:	ba cd       	rjmp	.-1164   	; 0x226 <__trampolines_end+0x162>
     6b2:	4b ea       	ldi	r20, 0xAB	; 171
     6b4:	41 09       	sbc	r20, r1
     6b6:	70 1c       	adc	r7, r0
     6b8:	21 22       	and	r2, r17
     6ba:	6b 1c       	adc	r6, r11
     6bc:	93 08       	sbc	r9, r3
     6be:	7f ff       	.word	0xff7f	; ????
     6c0:	b9 fa       	.word	0xfab9	; ????
     6c2:	6c fa       	.word	0xfa6c	; ????
     6c4:	33 00       	.word	0x0033	; ????
     6c6:	13 00       	.word	0x0013	; ????
     6c8:	a7 00       	.word	0x00a7	; ????
     6ca:	ec fe       	.word	0xfeec	; ????
     6cc:	3b 03       	fmul	r19, r19
     6ce:	48 08       	sbc	r4, r8
     6d0:	98 0f       	add	r25, r24
     6d2:	b2 18       	sub	r11, r2
     6d4:	11 19       	sub	r17, r1
     6d6:	71 18       	sub	r7, r1
     6d8:	87 12       	cpse	r8, r23
     6da:	be 0f       	add	r27, r30
     6dc:	f0 0f       	add	r31, r16
     6de:	78 11       	cpse	r23, r8
     6e0:	9f 15       	cp	r25, r15
     6e2:	04 13       	cpse	r16, r20
     6e4:	1c 0b       	sbc	r17, r28
     6e6:	6e 04       	cpc	r6, r14
     6e8:	64 fd       	sbrc	r22, 4
     6ea:	55 fb       	bst	r21, 5
     6ec:	52 ff       	sbrs	r21, 2
     6ee:	1a ff       	.word	0xff1a	; ????
     6f0:	5e fc       	.word	0xfc5e	; ????
     6f2:	fb f1       	brvs	.+126    	; 0x772 <__LOCK_REGION_LENGTH__+0x372>
     6f4:	01 e8       	ldi	r16, 0x81	; 129
     6f6:	8d e3       	ldi	r24, 0x3D	; 61
     6f8:	8f d6       	rcall	.+3358   	; 0x1418 <__stack+0x919>
     6fa:	b8 cd       	rjmp	.-1168   	; 0x26c <__trampolines_end+0x1a8>
     6fc:	70 d2       	rcall	.+1248   	; 0xbde <__stack+0xdf>
     6fe:	e6 d4       	rcall	.+2508   	; 0x10cc <__stack+0x5cd>
     700:	73 da       	rcall	.-2842   	; 0xfffffbe8 <__eeprom_end+0xff7efbe8>
     702:	cd da       	rcall	.-2662   	; 0xfffffc9e <__eeprom_end+0xff7efc9e>
     704:	94 fa       	bst	r9, 4
     706:	5e 14       	cp	r5, r14
     708:	fe 1f       	adc	r31, r30
     70a:	91 1c       	adc	r9, r1
     70c:	c1 10       	cpse	r12, r1
     70e:	a7 01       	movw	r20, r14
     710:	85 ff       	sbrs	r24, 5
     712:	51 f7       	brne	.-44     	; 0x6e8 <__LOCK_REGION_LENGTH__+0x2e8>
     714:	2e f2       	brts	.-118    	; 0x6a0 <__LOCK_REGION_LENGTH__+0x2a0>
     716:	e4 f3       	brlt	.-8      	; 0x710 <__LOCK_REGION_LENGTH__+0x310>
     718:	21 fc       	sbrc	r2, 1
     71a:	cf 09       	sbc	r28, r15
     71c:	09 15       	cp	r16, r9
     71e:	8d 15       	cp	r24, r13
     720:	d7 14       	cp	r13, r7
     722:	24 13       	cpse	r18, r20
     724:	6b 0f       	add	r22, r27
     726:	06 07       	cpc	r16, r22
     728:	b8 00       	.word	0x00b8	; ????
     72a:	9f fa       	.word	0xfa9f	; ????
     72c:	7d fb       	.word	0xfb7d	; ????
     72e:	dd 00       	.word	0x00dd	; ????
     730:	ca 03       	fmulsu	r20, r18
     732:	95 06       	cpc	r9, r21
     734:	e3 07       	cpc	r30, r19
     736:	22 0a       	sbc	r2, r18
     738:	21 0a       	sbc	r2, r17
     73a:	50 08       	sbc	r5, r0
     73c:	c6 02       	muls	r28, r22
     73e:	ce fb       	.word	0xfbce	; ????
     740:	8c f8       	.word	0xf88c	; ????
     742:	d1 f6       	brne	.-76     	; 0x6f8 <__LOCK_REGION_LENGTH__+0x2f8>
     744:	2f f4       	brid	.+10     	; 0x750 <__LOCK_REGION_LENGTH__+0x350>
     746:	4f f4       	brid	.+18     	; 0x75a <__LOCK_REGION_LENGTH__+0x35a>
     748:	7a f1       	brmi	.+94     	; 0x7a8 <__LOCK_REGION_LENGTH__+0x3a8>
     74a:	6f e8       	ldi	r22, 0x8F	; 143
     74c:	84 db       	rcall	.-2296   	; 0xfffffe56 <__eeprom_end+0xff7efe56>
     74e:	9f dd       	rcall	.-1218   	; 0x28e <__trampolines_end+0x1ca>
     750:	7d de       	rcall	.-774    	; 0x44c <__LOCK_REGION_LENGTH__+0x4c>
     752:	73 dd       	rcall	.-1306   	; 0x23a <__trampolines_end+0x176>
     754:	62 d7       	rcall	.+3780   	; 0x161a <__stack+0xb1b>
     756:	82 e8       	ldi	r24, 0x82	; 130
     758:	20 0e       	add	r2, r16
     75a:	8b 1f       	adc	r24, r27
     75c:	76 22       	and	r7, r22
     75e:	85 16       	cp	r8, r21
     760:	85 08       	sbc	r8, r5
     762:	3c 05       	cpc	r19, r12
     764:	7b 02       	muls	r23, r27
     766:	bb f4       	brvc	.+46     	; 0x796 <__LOCK_REGION_LENGTH__+0x396>
     768:	d2 ed       	ldi	r29, 0xD2	; 210
     76a:	52 f3       	brmi	.-44     	; 0x740 <__LOCK_REGION_LENGTH__+0x340>
     76c:	05 05       	cpc	r16, r5
     76e:	2c 13       	cpse	r18, r28
     770:	c9 16       	cp	r12, r25
     772:	f0 14       	cp	r15, r0
     774:	8f 14       	cp	r8, r15
     776:	85 14       	cp	r8, r5
     778:	f3 0c       	add	r15, r3
     77a:	9e 03       	fmulsu	r17, r22
     77c:	41 f9       	bld	r20, 1
     77e:	c7 f6       	brid	.-80     	; 0x730 <__LOCK_REGION_LENGTH__+0x330>
     780:	61 fc       	sbrc	r6, 1
     782:	0f 01       	movw	r0, r30
     784:	49 06       	cpc	r4, r25
     786:	35 07       	cpc	r19, r21
     788:	18 09       	sbc	r17, r8
     78a:	43 09       	sbc	r20, r3
     78c:	c8 07       	cpc	r28, r24
     78e:	ef 01       	movw	r28, r30
     790:	36 fb       	bst	r19, 6
     792:	2d f8       	.word	0xf82d	; ????
     794:	35 f7       	brhc	.-52     	; 0x762 <__LOCK_REGION_LENGTH__+0x362>
     796:	9a f8       	.word	0xf89a	; ????
     798:	3c f9       	.word	0xf93c	; ????
     79a:	d2 f4       	brpl	.+52     	; 0x7d0 <__LOCK_REGION_LENGTH__+0x3d0>
     79c:	09 e9       	ldi	r16, 0x99	; 153
     79e:	88 da       	rcall	.-2800   	; 0xfffffcb0 <__eeprom_end+0xff7efcb0>
     7a0:	f3 db       	rcall	.-2074   	; 0xffffff88 <__eeprom_end+0xff7eff88>
     7a2:	c2 dc       	rcall	.-1660   	; 0x128 <__trampolines_end+0x64>
     7a4:	f8 da       	rcall	.-2576   	; 0xfffffd96 <__eeprom_end+0xff7efd96>
     7a6:	74 d4       	rcall	.+2280   	; 0x1090 <__stack+0x591>
     7a8:	6b e7       	ldi	r22, 0x7B	; 123
     7aa:	47 10       	cpse	r4, r7
     7ac:	7c 22       	and	r7, r28
     7ae:	67 25       	eor	r22, r7
     7b0:	62 18       	sub	r6, r2
     7b2:	b5 09       	sbc	r27, r5
     7b4:	c7 05       	cpc	r28, r7
     7b6:	1a 02       	muls	r17, r26
     7b8:	65 f2       	brhs	.-104    	; 0x752 <__LOCK_REGION_LENGTH__+0x352>
     7ba:	6e eb       	ldi	r22, 0xBE	; 190
     7bc:	ae f1       	brts	.+106    	; 0x828 <__LOCK_REGION_LENGTH__+0x428>
     7be:	b4 04       	cpc	r11, r4
     7c0:	b7 13       	cpse	r27, r23
     7c2:	ae 18       	sub	r10, r14
     7c4:	d0 16       	cp	r13, r16
     7c6:	8f 16       	cp	r8, r31
     7c8:	4c 16       	cp	r4, r28
     7ca:	dc 0c       	add	r13, r12
     7cc:	61 02       	muls	r22, r17
     7ce:	50 f7       	brcc	.-44     	; 0x7a4 <__LOCK_REGION_LENGTH__+0x3a4>
     7d0:	cc f4       	brge	.+50     	; 0x804 <__LOCK_REGION_LENGTH__+0x404>
     7d2:	81 fb       	bst	r24, 1
     7d4:	b9 00       	.word	0x00b9	; ????
     7d6:	f7 05       	cpc	r31, r7
     7d8:	0c 07       	cpc	r16, r28
     7da:	bf 09       	sbc	r27, r15
     7dc:	5d 0a       	sbc	r5, r29
     7de:	ed 08       	sbc	r14, r13
     7e0:	67 02       	muls	r22, r23
     7e2:	6e fa       	.word	0xfa6e	; ????
     7e4:	57 f7       	brid	.-44     	; 0x7ba <__LOCK_REGION_LENGTH__+0x3ba>
     7e6:	0a f6       	brpl	.-126    	; 0x76a <__LOCK_REGION_LENGTH__+0x36a>
     7e8:	5b f8       	.word	0xf85b	; ????
     7ea:	c0 f5       	brcc	.+112    	; 0x85c <__LOCK_REGION_LENGTH__+0x45c>
     7ec:	75 ef       	ldi	r23, 0xF5	; 245
     7ee:	a2 df       	rcall	.-188    	; 0x734 <__LOCK_REGION_LENGTH__+0x334>
     7f0:	9d d4       	rcall	.+2362   	; 0x112c <__stack+0x62d>
     7f2:	b4 da       	rcall	.-2712   	; 0xfffffd5c <__eeprom_end+0xff7efd5c>
     7f4:	36 dc       	rcall	.-1940   	; 0x62 <__SREG__+0x23>
     7f6:	74 d6       	rcall	.+3304   	; 0x14e0 <__stack+0x9e1>
     7f8:	37 d3       	rcall	.+1646   	; 0xe68 <__stack+0x369>
     7fa:	cf fc       	.word	0xfccf	; ????
     7fc:	e5 20       	and	r14, r5
     7fe:	0a 2c       	mov	r0, r10
     800:	d9 1f       	adc	r29, r25
     802:	5d 0b       	sbc	r21, r29
     804:	36 01       	movw	r6, r12
     806:	fd 02       	muls	r31, r29
     808:	fd f7       	brhc	.-2      	; 0x808 <__LOCK_REGION_LENGTH__+0x408>
     80a:	2e eb       	ldi	r18, 0xBE	; 190
     80c:	9a ee       	ldi	r25, 0xEA	; 234
     80e:	bc fd       	.word	0xfdbc	; ????
     810:	cb 12       	cpse	r12, r27
     812:	29 1e       	adc	r2, r25
     814:	b9 18       	sub	r11, r9
     816:	12 15       	cp	r17, r2
     818:	55 14       	cp	r5, r5
     81a:	bd 12       	cpse	r11, r29
     81c:	ab 02       	muls	r26, r27
     81e:	ce f8       	.word	0xf8ce	; ????
     820:	1e f2       	brts	.-122    	; 0x7a8 <__LOCK_REGION_LENGTH__+0x3a8>
     822:	47 fa       	bst	r4, 7
     824:	63 07       	cpc	r22, r19
     826:	13 0d       	add	r17, r3
     828:	04 0c       	add	r0, r4
     82a:	83 0c       	add	r8, r3
     82c:	ad 0c       	add	r10, r13
     82e:	89 0b       	sbc	r24, r25
     830:	d5 03       	fmuls	r21, r21
     832:	5c fa       	.word	0xfa5c	; ????
     834:	f9 f3       	breq	.-2      	; 0x834 <__LOCK_REGION_LENGTH__+0x434>
     836:	b9 f4       	brne	.+46     	; 0x866 <__LOCK_REGION_LENGTH__+0x466>
     838:	fe f6       	brtc	.-66     	; 0x7f8 <__LOCK_REGION_LENGTH__+0x3f8>
     83a:	61 f9       	bld	r22, 1
     83c:	82 f1       	brmi	.+96     	; 0x89e <__LOCK_REGION_LENGTH__+0x49e>
     83e:	51 e9       	ldi	r21, 0x91	; 145
     840:	5a d8       	rcall	.-3916   	; 0xfffff8f6 <__eeprom_end+0xff7ef8f6>
     842:	46 d9       	rcall	.-3444   	; 0xfffffad0 <__eeprom_end+0xff7efad0>
     844:	5d de       	rcall	.-838    	; 0x500 <__LOCK_REGION_LENGTH__+0x100>
     846:	db d8       	rcall	.-3658   	; 0xfffff9fe <__eeprom_end+0xff7ef9fe>
     848:	80 d2       	rcall	.+1280   	; 0xd4a <__stack+0x24b>
     84a:	d5 e7       	ldi	r29, 0x75	; 117
     84c:	35 14       	cp	r3, r5
     84e:	d5 2d       	mov	r29, r5
     850:	05 2b       	or	r16, r21
     852:	e9 14       	cp	r14, r9
     854:	c6 fe       	sbrs	r12, 6
     856:	ea fe       	.word	0xfeea	; ????
     858:	ea fa       	.word	0xfaea	; ????
     85a:	47 ee       	ldi	r20, 0xE7	; 231
     85c:	7d eb       	ldi	r23, 0xBD	; 189
     85e:	cb fc       	.word	0xfccb	; ????
     860:	3d 0c       	add	r3, r13
     862:	b9 21       	and	r27, r9
     864:	46 20       	and	r4, r6
     866:	8e 16       	cp	r8, r30
     868:	be 12       	cpse	r11, r30
     86a:	0a 0f       	add	r16, r26
     86c:	07 05       	cpc	r16, r7
     86e:	b4 f8       	bld	r11, 4
     870:	f0 f0       	brcs	.+60     	; 0x8ae <__LOCK_REGION_LENGTH__+0x4ae>
     872:	fe f4       	brtc	.+62     	; 0x8b2 <__LOCK_REGION_LENGTH__+0x4b2>
     874:	70 04       	cpc	r7, r0
     876:	20 10       	cpse	r2, r0
     878:	7a 11       	cpse	r23, r10
     87a:	c4 0d       	add	r28, r4
     87c:	02 09       	sbc	r16, r2
     87e:	ce 07       	cpc	r28, r30
     880:	75 04       	cpc	r7, r5
     882:	27 fd       	sbrc	r18, 7
     884:	63 f5       	brvc	.+88     	; 0x8de <__LOCK_REGION_LENGTH__+0x4de>
     886:	72 f4       	brpl	.+28     	; 0x8a4 <__LOCK_REGION_LENGTH__+0x4a4>
     888:	47 f7       	brid	.-48     	; 0x85a <__LOCK_REGION_LENGTH__+0x45a>
     88a:	9a fe       	.word	0xfe9a	; ????
     88c:	64 f7       	brge	.-40     	; 0x866 <__LOCK_REGION_LENGTH__+0x466>
     88e:	96 e5       	ldi	r25, 0x56	; 86
     890:	ea d5       	rcall	.+3028   	; 0x1466 <__stack+0x967>
     892:	e1 d5       	rcall	.+3010   	; 0x1456 <__stack+0x957>
     894:	a0 dc       	rcall	.-1728   	; 0x1d6 <__trampolines_end+0x112>
     896:	e0 db       	rcall	.-2112   	; 0x58 <__SREG__+0x19>
     898:	b8 d1       	rcall	.+880    	; 0xc0a <__stack+0x10b>
     89a:	01 eb       	ldi	r16, 0xB1	; 177
     89c:	d9 13       	cpse	r29, r25
     89e:	ea 2e       	mov	r14, r26
     8a0:	68 22       	and	r6, r24
     8a2:	ff 10       	cpse	r15, r15
     8a4:	f7 f6       	brid	.-68     	; 0x862 <__LOCK_REGION_LENGTH__+0x462>
     8a6:	68 f9       	.word	0xf968	; ????
     8a8:	58 f5       	brcc	.+86     	; 0x900 <__LOCK_REGION_LENGTH__+0x500>
     8aa:	db f4       	brvc	.+54     	; 0x8e2 <__LOCK_REGION_LENGTH__+0x4e2>
     8ac:	4a f4       	brpl	.+18     	; 0x8c0 <__LOCK_REGION_LENGTH__+0x4c0>
     8ae:	08 03       	fmul	r16, r16
     8b0:	93 16       	cp	r9, r19
     8b2:	3c 21       	and	r19, r12
     8b4:	5c 1c       	adc	r5, r12
     8b6:	89 10       	cpse	r8, r9
     8b8:	d2 07       	cpc	r29, r18
     8ba:	7f 07       	cpc	r23, r31
     8bc:	96 02       	muls	r25, r22
     8be:	fc fc       	.word	0xfcfc	; ????
     8c0:	18 fa       	.word	0xfa18	; ????
     8c2:	23 ff       	sbrs	r18, 3
     8c4:	24 0b       	sbc	r18, r20
     8c6:	05 13       	cpse	r16, r21
     8c8:	56 0b       	sbc	r21, r22
     8ca:	4f 06       	cpc	r4, r31
     8cc:	99 00       	.word	0x0099	; ????
     8ce:	af ff       	.word	0xffaf	; ????
     8d0:	e2 00       	.word	0x00e2	; ????
     8d2:	c7 fe       	sbrs	r12, 7
     8d4:	af f8       	.word	0xf8af	; ????
     8d6:	48 fa       	.word	0xfa48	; ????
     8d8:	c4 fd       	sbrc	r28, 4
     8da:	92 fd       	sbrc	r25, 2
     8dc:	ad ee       	ldi	r26, 0xED	; 237
     8de:	ca d3       	rcall	.+1940   	; 0x1074 <__stack+0x575>
     8e0:	1c c9       	rjmp	.-3528   	; 0xfffffb1a <__eeprom_end+0xff7efb1a>
     8e2:	31 d2       	rcall	.+1122   	; 0xd46 <__stack+0x247>
     8e4:	0d d9       	rcall	.-3558   	; 0xfffffb00 <__eeprom_end+0xff7efb00>
     8e6:	1c da       	rcall	.-3016   	; 0xfffffd20 <__eeprom_end+0xff7efd20>
     8e8:	37 e3       	ldi	r19, 0x37	; 55
     8ea:	b4 0f       	add	r27, r20
     8ec:	c7 23       	and	r28, r23
     8ee:	d0 35       	cpi	r29, 0x50	; 80
     8f0:	57 20       	and	r5, r7
     8f2:	f2 fb       	bst	r31, 2
     8f4:	53 ee       	ldi	r21, 0xE3	; 227
     8f6:	69 f0       	breq	.+26     	; 0x912 <__LOCK_REGION_LENGTH__+0x512>
     8f8:	7c f3       	brlt	.-34     	; 0x8d8 <__LOCK_REGION_LENGTH__+0x4d8>
     8fa:	c6 f7       	brtc	.-16     	; 0x8ec <__LOCK_REGION_LENGTH__+0x4ec>
     8fc:	6e f9       	.word	0xf96e	; ????
     8fe:	9e 06       	cpc	r9, r30
     900:	26 1d       	adc	r18, r6
     902:	08 28       	or	r0, r8
     904:	84 22       	and	r8, r20
     906:	61 11       	cpse	r22, r1
     908:	ef 00       	.word	0x00ef	; ????
     90a:	6b fc       	.word	0xfc6b	; ????
     90c:	a4 fd       	sbrc	r26, 4
     90e:	40 fe       	sbrs	r4, 0
     910:	de fd       	.word	0xfdde	; ????
     912:	c2 02       	muls	r28, r18
     914:	29 09       	sbc	r18, r9
     916:	1f 0e       	add	r1, r31
     918:	e1 0c       	add	r14, r1
     91a:	bd 03       	fmulsu	r19, r21
     91c:	05 ff       	sbrs	r16, 5
     91e:	2f fe       	.word	0xfe2f	; ????
     920:	d7 fe       	sbrs	r13, 7
     922:	de fc       	.word	0xfcde	; ????
     924:	be f9       	.word	0xf9be	; ????
     926:	38 f7       	brcc	.-50     	; 0x8f6 <__LOCK_REGION_LENGTH__+0x4f6>
     928:	ab f3       	brvs	.-22     	; 0x914 <__LOCK_REGION_LENGTH__+0x514>
     92a:	e8 e6       	ldi	r30, 0x68	; 104
     92c:	66 d6       	rcall	.+3276   	; 0x15fa <__stack+0xafb>
     92e:	0c cc       	rjmp	.-2024   	; 0x148 <__trampolines_end+0x84>
     930:	5b d1       	rcall	.+694    	; 0xbe8 <__stack+0xe9>
     932:	3d d9       	rcall	.-3462   	; 0xfffffbae <__eeprom_end+0xff7efbae>
     934:	fa d9       	rcall	.-3084   	; 0xfffffd2a <__eeprom_end+0xff7efd2a>
     936:	bb e5       	ldi	r27, 0x5B	; 91
     938:	88 11       	cpse	r24, r8
     93a:	d0 2e       	mov	r13, r16
     93c:	0d 2f       	mov	r16, r29
     93e:	9e 1e       	adc	r9, r30
     940:	ac fc       	.word	0xfcac	; ????
     942:	08 ee       	ldi	r16, 0xE8	; 232
     944:	8b f1       	brvs	.+98     	; 0x9a8 <__LOCK_REGION_LENGTH__+0x5a8>
     946:	90 f2       	brcs	.-92     	; 0x8ec <__LOCK_REGION_LENGTH__+0x4ec>
     948:	de f7       	brtc	.-10     	; 0x940 <__LOCK_REGION_LENGTH__+0x540>
     94a:	43 ff       	sbrs	r20, 3
     94c:	0b 0f       	add	r16, r27
     94e:	d0 1d       	adc	r29, r0
     950:	e2 26       	eor	r14, r18
     952:	c9 1c       	adc	r12, r9
     954:	3f 0a       	sbc	r3, r31
     956:	2d 01       	movw	r4, r26
     958:	ff fb       	.word	0xfbff	; ????
     95a:	bc fe       	.word	0xfebc	; ????
     95c:	9c fd       	.word	0xfd9c	; ????
     95e:	4e ff       	.word	0xff4e	; ????
     960:	0e 04       	cpc	r0, r14
     962:	ec 09       	sbc	r30, r12
     964:	0e 0d       	add	r16, r14
     966:	ad 0b       	sbc	r26, r29
     968:	79 02       	muls	r23, r25
     96a:	f4 ff       	sbrs	r31, 4
     96c:	f7 fd       	sbrc	r31, 7
     96e:	1c fe       	.word	0xfe1c	; ????
     970:	d6 fb       	bst	r29, 6
     972:	f6 f7       	brtc	.-4      	; 0x970 <__LOCK_REGION_LENGTH__+0x570>
     974:	fd f6       	brhc	.-66     	; 0x934 <__LOCK_REGION_LENGTH__+0x534>
     976:	df f3       	brie	.-10     	; 0x96e <__LOCK_REGION_LENGTH__+0x56e>
     978:	7f e7       	ldi	r23, 0x7F	; 127
     97a:	81 d5       	rcall	.+2818   	; 0x147e <__stack+0x97f>
     97c:	c9 d3       	rcall	.+1938   	; 0x1110 <__stack+0x611>
     97e:	d6 d6       	rcall	.+3500   	; 0x172c <__stack+0xc2d>
     980:	30 dd       	rcall	.-1440   	; 0x3e2 <__trampolines_end+0x31e>
     982:	8b dc       	rcall	.-1770   	; 0x29a <__trampolines_end+0x1d6>
     984:	f8 02       	muls	r31, r24
     986:	e4 1e       	adc	r14, r20
     988:	2b 31       	cpi	r18, 0x1B	; 27
     98a:	d9 27       	eor	r29, r25
     98c:	6a 09       	sbc	r22, r10
     98e:	cd ec       	ldi	r28, 0xCD	; 205
     990:	18 ea       	ldi	r17, 0xA8	; 168
     992:	db ea       	ldi	r29, 0xAB	; 171
     994:	00 fc       	sbrc	r0, 0
     996:	63 03       	mulsu	r22, r19
     998:	fe 0c       	add	r15, r14
     99a:	d8 18       	sub	r13, r8
     99c:	3b 23       	and	r19, r27
     99e:	5d 1c       	adc	r5, r13
     9a0:	6a 13       	cpse	r22, r26
     9a2:	f8 fe       	.word	0xfef8	; ????
     9a4:	8a f9       	.word	0xf98a	; ????
     9a6:	a5 fc       	sbrc	r10, 5
     9a8:	7b 01       	movw	r14, r22
     9aa:	cb 04       	cpc	r12, r11
     9ac:	52 07       	cpc	r21, r18
     9ae:	f5 09       	sbc	r31, r5
     9b0:	07 0d       	add	r16, r7
     9b2:	1d 0b       	sbc	r17, r29
     9b4:	ac 01       	movw	r20, r24
     9b6:	5e fa       	.word	0xfa5e	; ????
     9b8:	57 f8       	bld	r5, 7
     9ba:	28 fc       	.word	0xfc28	; ????
     9bc:	e8 ff       	.word	0xffe8	; ????
     9be:	5c fd       	.word	0xfd5c	; ????
     9c0:	84 f8       	bld	r8, 4
     9c2:	57 ea       	ldi	r21, 0xA7	; 167
     9c4:	d5 dd       	rcall	.-1110   	; 0x570 <__LOCK_REGION_LENGTH__+0x170>
     9c6:	28 cf       	rjmp	.-432    	; 0x818 <__LOCK_REGION_LENGTH__+0x418>
     9c8:	54 cf       	rjmp	.-344    	; 0x872 <__LOCK_REGION_LENGTH__+0x472>
     9ca:	bc d2       	rcall	.+1400   	; 0xf44 <__stack+0x445>
     9cc:	ca d7       	rcall	.+3988   	; 0x1962 <__stack+0xe63>
     9ce:	cb d9       	rcall	.-3178   	; 0xfffffd66 <__eeprom_end+0xff7efd66>
     9d0:	ca f3       	brmi	.-14     	; 0x9c4 <__LOCK_REGION_LENGTH__+0x5c4>
     9d2:	33 16       	cp	r3, r19
     9d4:	76 35       	cpi	r23, 0x56	; 86
     9d6:	0a 2d       	mov	r16, r10
     9d8:	21 0d       	add	r18, r1
     9da:	4f f7       	brid	.-46     	; 0x9ae <__LOCK_REGION_LENGTH__+0x5ae>
     9dc:	75 ec       	ldi	r23, 0xC5	; 197
     9de:	fa ed       	ldi	r31, 0xDA	; 218
     9e0:	63 fc       	sbrc	r6, 3
     9e2:	32 fe       	sbrs	r3, 2
     9e4:	36 07       	cpc	r19, r22
     9e6:	c3 11       	cpse	r28, r3
     9e8:	fe 1d       	adc	r31, r14
     9ea:	67 1f       	adc	r22, r23
     9ec:	35 18       	sub	r3, r5
     9ee:	5d 06       	cpc	r5, r29
     9f0:	74 fd       	sbrc	r23, 4
     9f2:	a4 fb       	bst	r26, 4
     9f4:	3e 02       	muls	r19, r30
     9f6:	1c 07       	cpc	r17, r28
     9f8:	a7 08       	sbc	r10, r7
     9fa:	1c 07       	cpc	r17, r28
     9fc:	e6 06       	cpc	r14, r22
     9fe:	21 07       	cpc	r18, r17
     a00:	42 04       	cpc	r4, r2
     a02:	4d 00       	.word	0x004d	; ????
     a04:	9c fa       	.word	0xfa9c	; ????
     a06:	97 f9       	bld	r25, 7
     a08:	1f fe       	.word	0xfe1f	; ????
     a0a:	d7 00       	.word	0x00d7	; ????
     a0c:	0a 00       	.word	0x000a	; ????
     a0e:	89 f3       	breq	.-30     	; 0x9f2 <__LOCK_REGION_LENGTH__+0x5f2>
     a10:	12 e3       	ldi	r17, 0x32	; 50
     a12:	d1 d6       	rcall	.+3490   	; 0x17b6 <__stack+0xcb7>
     a14:	c3 cf       	rjmp	.-122    	; 0x99c <__LOCK_REGION_LENGTH__+0x59c>
     a16:	c1 d4       	rcall	.+2434   	; 0x139a <__stack+0x89b>
     a18:	30 d7       	rcall	.+3680   	; 0x187a <__stack+0xd7b>
     a1a:	f0 d5       	rcall	.+3040   	; 0x15fc <__stack+0xafd>
     a1c:	14 e7       	ldi	r17, 0x74	; 116
     a1e:	cf 08       	sbc	r12, r15
     a20:	fb 2b       	or	r31, r27
     a22:	85 32       	cpi	r24, 0x25	; 37
     a24:	68 22       	and	r6, r24
     a26:	48 00       	.word	0x0048	; ????
     a28:	fc e8       	ldi	r31, 0x8C	; 140
     a2a:	8f e9       	ldi	r24, 0x9F	; 159
     a2c:	17 f7       	brid	.-60     	; 0x9f2 <__LOCK_REGION_LENGTH__+0x5f2>
     a2e:	05 06       	cpc	r0, r21
     a30:	f0 0c       	add	r15, r0
     a32:	c9 0e       	add	r12, r25
     a34:	19 12       	cpse	r1, r25
     a36:	08 19       	sub	r16, r8
     a38:	ce 18       	sub	r12, r14
     a3a:	e8 0c       	add	r14, r8
     a3c:	e4 03       	fmuls	r22, r20
     a3e:	5e fb       	.word	0xfb5e	; ????
     a40:	2f 01       	movw	r4, r30
     a42:	6e 0a       	sbc	r6, r30
     a44:	68 0e       	add	r6, r24
     a46:	e1 08       	sbc	r14, r1
     a48:	f7 ff       	sbrs	r31, 7
     a4a:	3c fb       	.word	0xfb3c	; ????
     a4c:	54 fb       	bst	r21, 4
     a4e:	9c ff       	.word	0xff9c	; ????
     a50:	20 02       	muls	r18, r16
     a52:	3f ff       	.word	0xff3f	; ????
     a54:	b5 fe       	sbrs	r11, 5
     a56:	14 fe       	sbrs	r1, 4
     a58:	20 fc       	sbrc	r2, 0
     a5a:	fd ef       	ldi	r31, 0xFD	; 253
     a5c:	3c e5       	ldi	r19, 0x5C	; 92
     a5e:	b9 d0       	rcall	.+370    	; 0xbd2 <__stack+0xd3>
     a60:	c3 cc       	rjmp	.-1658   	; 0x3e8 <__trampolines_end+0x324>
     a62:	9c d2       	rcall	.+1336   	; 0xf9c <__stack+0x49d>
     a64:	39 d8       	rcall	.-3982   	; 0xfffffad8 <__eeprom_end+0xff7efad8>
     a66:	06 d9       	rcall	.-3572   	; 0xfffffc74 <__eeprom_end+0xff7efc74>
     a68:	26 f6       	brtc	.-120    	; 0x9f2 <__LOCK_REGION_LENGTH__+0x5f2>
     a6a:	08 12       	cpse	r0, r24
     a6c:	0e 2a       	or	r0, r30
     a6e:	56 31       	cpi	r21, 0x16	; 22
     a70:	38 19       	sub	r19, r8
     a72:	24 f6       	brge	.-120    	; 0x9fc <__LOCK_REGION_LENGTH__+0x5fc>
     a74:	21 e7       	ldi	r18, 0x71	; 113
     a76:	b1 e7       	ldi	r27, 0x71	; 113
     a78:	54 fc       	sbrc	r5, 4
     a7a:	05 09       	sbc	r16, r5
     a7c:	7c 10       	cpse	r7, r12
     a7e:	ea 0f       	add	r30, r26
     a80:	f3 15       	cp	r31, r3
     a82:	d4 18       	sub	r13, r4
     a84:	e1 15       	cp	r30, r1
     a86:	28 0d       	add	r18, r8
     a88:	3e 01       	movw	r6, r28
     a8a:	7f fc       	.word	0xfc7f	; ????
     a8c:	2a 05       	cpc	r18, r10
     a8e:	69 09       	sbc	r22, r9
     a90:	16 0c       	add	r1, r6
     a92:	fe 03       	fmulsu	r23, r22
     a94:	e9 fc       	.word	0xfce9	; ????
     a96:	8f fa       	.word	0xfa8f	; ????
     a98:	13 fe       	sbrs	r1, 3
     a9a:	1e 02       	muls	r17, r30
     a9c:	8b 02       	muls	r24, r27
     a9e:	b3 ff       	sbrs	r27, 3
     aa0:	b8 fd       	.word	0xfdb8	; ????
     aa2:	16 fb       	bst	r17, 6
     aa4:	f6 f7       	brtc	.-4      	; 0xaa2 <__LOCK_REGION_LENGTH__+0x6a2>
     aa6:	36 f0       	brts	.+12     	; 0xab4 <__LOCK_REGION_LENGTH__+0x6b4>
     aa8:	cb df       	rcall	.-106    	; 0xa40 <__LOCK_REGION_LENGTH__+0x640>
     aaa:	6d d0       	rcall	.+218    	; 0xb86 <__stack+0x87>
     aac:	49 d1       	rcall	.+658    	; 0xd40 <__stack+0x241>
     aae:	36 d4       	rcall	.+2156   	; 0x131c <__stack+0x81d>
     ab0:	d7 dd       	rcall	.-1106   	; 0x660 <__LOCK_REGION_LENGTH__+0x260>
     ab2:	b6 ed       	ldi	r27, 0xD6	; 214
     ab4:	b5 07       	cpc	r27, r21
     ab6:	2a 18       	sub	r2, r10
     ab8:	7a 2e       	mov	r7, r26
     aba:	89 24       	eor	r8, r9
     abc:	5a 0b       	sbc	r21, r26
     abe:	89 f7       	brne	.-30     	; 0xaa2 <__LOCK_REGION_LENGTH__+0x6a2>
     ac0:	dc e9       	ldi	r29, 0x9C	; 156
     ac2:	d6 ef       	ldi	r29, 0xF6	; 246
     ac4:	c1 fe       	sbrs	r12, 1
     ac6:	fc 0c       	add	r15, r12
     ac8:	15 11       	cpse	r17, r5
     aca:	31 13       	cpse	r19, r17
     acc:	02 15       	cp	r16, r2
     ace:	bf 15       	cp	r27, r15
     ad0:	34 13       	cpse	r19, r20
     ad2:	d5 09       	sbc	r29, r5
     ad4:	5e 00       	.word	0x005e	; ????
     ad6:	32 ff       	sbrs	r19, 2
     ad8:	f5 01       	movw	r30, r10
     ada:	47 07       	cpc	r20, r23
     adc:	26 05       	cpc	r18, r6
     ade:	d0 00       	.word	0x00d0	; ????
     ae0:	5b fd       	.word	0xfd5b	; ????
     ae2:	f2 fb       	bst	r31, 2
     ae4:	83 ff       	sbrs	r24, 3
     ae6:	d2 02       	muls	r29, r18
     ae8:	cf 01       	movw	r24, r30
     aea:	b7 fd       	sbrc	r27, 7
     aec:	de f6       	brtc	.-74     	; 0xaa4 <__LOCK_REGION_LENGTH__+0x6a4>
     aee:	3e ee       	ldi	r19, 0xEE	; 238
     af0:	36 e9       	ldi	r19, 0x96	; 150
     af2:	76 e0       	ldi	r23, 0x06	; 6
     af4:	48 d8       	rcall	.-3952   	; 0xfffffb86 <__eeprom_end+0xff7efb86>
     af6:	18 d2       	rcall	.+1072   	; 0xf28 <__stack+0x429>
     af8:	b9 cf       	rjmp	.-142    	; 0xa6c <__LOCK_REGION_LENGTH__+0x66c>
     afa:	f9 d0       	rcall	.+498    	; 0xcee <__stack+0x1ef>
     afc:	83 d3       	rcall	.+1798   	; 0x1204 <__stack+0x705>
     afe:	65 f1       	brhs	.+88     	; 0xb58 <__stack+0x59>
     b00:	26 0d       	add	r18, r6
     b02:	af 2e       	mov	r10, r31
     b04:	90 3c       	cpi	r25, 0xC0	; 192
     b06:	7a 26       	eor	r7, r26
     b08:	83 11       	cpse	r24, r3
     b0a:	92 f6       	brpl	.-92     	; 0xab0 <__LOCK_REGION_LENGTH__+0x6b0>
     b0c:	fe ea       	ldi	r31, 0xAE	; 174
     b0e:	6f f5       	brid	.+90     	; 0xb6a <__stack+0x6b>
     b10:	49 f9       	.word	0xf949	; ????
     b12:	43 01       	movw	r8, r6
     b14:	51 06       	cpc	r5, r17
     b16:	d9 0e       	add	r13, r25
     b18:	c8 1c       	adc	r12, r8
     b1a:	01 22       	and	r0, r17
     b1c:	0a 1f       	adc	r16, r26
     b1e:	72 0f       	add	r23, r18
     b20:	10 fa       	bst	r1, 0
     b22:	69 f3       	breq	.-38     	; 0xafe <__LOCK_REGION_LENGTH__+0x6fe>
     b24:	c1 f2       	breq	.-80     	; 0xad6 <__LOCK_REGION_LENGTH__+0x6d6>
     b26:	32 fd       	sbrc	r19, 2
     b28:	3b 05       	cpc	r19, r11
     b2a:	ce 05       	cpc	r28, r14
     b2c:	bd 03       	fmulsu	r19, r21
     b2e:	4b 01       	movw	r8, r22
     b30:	25 04       	cpc	r2, r5
     b32:	b5 05       	cpc	r27, r5
     b34:	e2 ff       	sbrs	r30, 2
     b36:	78 f3       	brcs	.-34     	; 0xb16 <__stack+0x17>
     b38:	8c dc       	rcall	.-1768   	; 0x452 <__LOCK_REGION_LENGTH__+0x52>
     b3a:	c0 d5       	rcall	.+2944   	; 0x16bc <__stack+0xbbd>
     b3c:	61 ce       	rjmp	.-830    	; 0x800 <__LOCK_REGION_LENGTH__+0x400>
     b3e:	f1 d1       	rcall	.+994    	; 0xf22 <__stack+0x423>
     b40:	03 d6       	rcall	.+3078   	; 0x1748 <__stack+0xc49>
     b42:	af d5       	rcall	.+2910   	; 0x16a2 <__stack+0xba3>
     b44:	b4 d1       	rcall	.+872    	; 0xeae <__stack+0x3af>
     b46:	bd d5       	rcall	.+2938   	; 0x16c2 <__stack+0xbc3>
     b48:	51 fe       	sbrs	r5, 1
     b4a:	cd 18       	sub	r12, r13
     b4c:	3b 3e       	cpi	r19, 0xEB	; 235
     b4e:	04 38       	cpi	r16, 0x84	; 132
     b50:	70 11       	cpse	r23, r0
     b52:	f2 f2       	brmi	.-68     	; 0xb10 <__stack+0x11>
     b54:	31 db       	rcall	.-2462   	; 0x1b8 <__trampolines_end+0xf4>
     b56:	7c e1       	ldi	r23, 0x1C	; 28
     b58:	10 fe       	sbrs	r1, 0
     b5a:	95 09       	sbc	r25, r5
     b5c:	b9 10       	cpse	r11, r9
     b5e:	be 08       	sbc	r11, r14
     b60:	83 09       	sbc	r24, r3
     b62:	ec 15       	cp	r30, r12
     b64:	b1 1e       	adc	r11, r17
     b66:	af 1f       	adc	r26, r31
     b68:	41 0d       	add	r20, r1
     b6a:	5e f4       	brtc	.+22     	; 0xb82 <__stack+0x83>
     b6c:	7d ea       	ldi	r23, 0xAD	; 173
     b6e:	59 ed       	ldi	r21, 0xD9	; 217
     b70:	ab 01       	movw	r20, r22
     b72:	ff 12       	cpse	r15, r31
     b74:	1d 15       	cp	r17, r13
     b76:	2d 0e       	add	r2, r29
     b78:	7a ff       	.word	0xff7a	; ????
     b7a:	02 f9       	bld	r16, 2
     b7c:	b7 f7       	brid	.-20     	; 0xb6a <__stack+0x6b>
     b7e:	c9 f9       	.word	0xf9c9	; ????
     b80:	c5 ef       	ldi	r28, 0xF5	; 245
     b82:	73 e4       	ldi	r23, 0x43	; 67
     b84:	02 d9       	rcall	.-3580   	; 0xfffffd8a <__eeprom_end+0xff7efd8a>
     b86:	2f cf       	rjmp	.-418    	; 0x9e6 <__LOCK_REGION_LENGTH__+0x5e6>
     b88:	a1 ce       	rjmp	.-702    	; 0x8cc <__LOCK_REGION_LENGTH__+0x4cc>
     b8a:	3f d3       	rcall	.+1662   	; 0x120a <__stack+0x70b>
     b8c:	00 d4       	rcall	.+2048   	; 0x138e <__stack+0x88f>
     b8e:	c3 d5       	rcall	.+2950   	; 0x1716 <__stack+0xc17>
     b90:	0c f3       	brlt	.-62     	; 0xb54 <__stack+0x55>
     b92:	86 16       	cp	r8, r22
     b94:	50 31       	cpi	r21, 0x10	; 16
     b96:	18 3c       	cpi	r17, 0xC8	; 200
     b98:	18 23       	and	r17, r24
     b9a:	2c f9       	.word	0xf92c	; ????
     b9c:	16 e5       	ldi	r17, 0x56	; 86
     b9e:	74 dc       	rcall	.-1816   	; 0x488 <__LOCK_REGION_LENGTH__+0x88>
     ba0:	3e f3       	brts	.-50     	; 0xb70 <__stack+0x71>
     ba2:	f6 05       	cpc	r31, r6
     ba4:	a0 0e       	add	r10, r16
     ba6:	8e 0c       	add	r8, r14
     ba8:	8e 0a       	sbc	r8, r30
     baa:	98 11       	cpse	r25, r8
     bac:	f7 1a       	sub	r15, r23
     bae:	58 1f       	adc	r21, r24
     bb0:	89 15       	cp	r24, r9
     bb2:	64 fc       	sbrc	r6, 4
     bb4:	9b ec       	ldi	r25, 0xCB	; 203
     bb6:	69 eb       	ldi	r22, 0xB9	; 185
     bb8:	80 fa       	bst	r8, 0
     bba:	3b 0c       	add	r3, r11
     bbc:	ce 13       	cpse	r28, r30
     bbe:	7b 11       	cpse	r23, r11
     bc0:	15 05       	cpc	r17, r5
     bc2:	84 fb       	bst	r24, 4
     bc4:	2d f8       	.word	0xf82d	; ????
     bc6:	47 f8       	bld	r4, 7
     bc8:	ab f9       	.word	0xf9ab	; ????
     bca:	85 ef       	ldi	r24, 0xF5	; 245
     bcc:	88 e1       	ldi	r24, 0x18	; 24
     bce:	cc d8       	rcall	.-3688   	; 0xfffffd68 <__eeprom_end+0xff7efd68>
     bd0:	64 cf       	rjmp	.-312    	; 0xa9a <__LOCK_REGION_LENGTH__+0x69a>
     bd2:	9f d1       	rcall	.+830    	; 0xf12 <__stack+0x413>
     bd4:	ae ce       	rjmp	.-676    	; 0x932 <__LOCK_REGION_LENGTH__+0x532>
     bd6:	45 d0       	rcall	.+138    	; 0xc62 <__stack+0x163>
     bd8:	96 de       	rcall	.-724    	; 0x906 <__LOCK_REGION_LENGTH__+0x506>
     bda:	d2 01       	movw	r26, r4
     bdc:	bd 2a       	or	r11, r29
     bde:	28 3d       	cpi	r18, 0xD8	; 216
     be0:	f5 33       	cpi	r31, 0x35	; 53
     be2:	b3 12       	cpse	r11, r19
     be4:	0e e8       	ldi	r16, 0x8E	; 142
     be6:	a4 d9       	rcall	.-3256   	; 0xffffff30 <__eeprom_end+0xff7eff30>
     be8:	63 de       	rcall	.-826    	; 0x8b0 <__LOCK_REGION_LENGTH__+0x4b0>
     bea:	86 f9       	bld	r24, 6
     bec:	27 14       	cp	r2, r7
     bee:	b9 1a       	sub	r11, r25
     bf0:	35 15       	cp	r19, r5
     bf2:	50 0e       	add	r5, r16
     bf4:	f5 0f       	add	r31, r21
     bf6:	ad 13       	cpse	r26, r29
     bf8:	66 17       	cp	r22, r22
     bfa:	17 0e       	add	r1, r23
     bfc:	00 ff       	sbrs	r16, 0
     bfe:	15 f4       	brhc	.+4      	; 0xc04 <__stack+0x105>
     c00:	e6 ef       	ldi	r30, 0xF6	; 246
     c02:	02 f9       	bld	r16, 2
     c04:	43 0a       	sbc	r4, r19
     c06:	b3 12       	cpse	r11, r19
     c08:	8c 13       	cpse	r24, r28
     c0a:	44 08       	sbc	r4, r4
     c0c:	c2 fd       	sbrc	r28, 2
     c0e:	9b f1       	brvs	.+102    	; 0xc76 <__stack+0x177>
     c10:	af f1       	brie	.+106    	; 0xc7c <__stack+0x17d>
     c12:	c5 e9       	ldi	r28, 0x95	; 149
     c14:	38 e4       	ldi	r19, 0x48	; 72
     c16:	c5 d8       	rcall	.-3702   	; 0xfffffda2 <__eeprom_end+0xff7efda2>
     c18:	fc d4       	rcall	.+2552   	; 0x1612 <__stack+0xb13>
     c1a:	12 d0       	rcall	.+36     	; 0xc40 <__stack+0x141>
     c1c:	b6 d1       	rcall	.+876    	; 0xf8a <__stack+0x48b>
     c1e:	ad d1       	rcall	.+858    	; 0xf7a <__stack+0x47b>
     c20:	05 d8       	rcall	.-4086   	; 0xfffffc2c <__eeprom_end+0xff7efc2c>
     c22:	e1 f2       	breq	.-72     	; 0xbdc <__stack+0xdd>
     c24:	64 13       	cpse	r22, r20
     c26:	ea 2f       	mov	r30, r26
     c28:	85 33       	cpi	r24, 0x35	; 53
     c2a:	0e 21       	and	r16, r14
     c2c:	de fe       	.word	0xfede	; ????
     c2e:	8a e4       	ldi	r24, 0x4A	; 74
     c30:	14 e0       	ldi	r17, 0x04	; 4
     c32:	46 ef       	ldi	r20, 0xF6	; 246
     c34:	9e 06       	cpc	r9, r30
     c36:	67 16       	cp	r6, r23
     c38:	94 16       	cp	r9, r20
     c3a:	b8 11       	cpse	r27, r8
     c3c:	80 0a       	sbc	r8, r16
     c3e:	e7 0c       	add	r14, r7
     c40:	bd 0f       	add	r27, r29
     c42:	c9 10       	cpse	r12, r9
     c44:	1e 09       	sbc	r17, r14
     c46:	36 fb       	bst	r19, 6
     c48:	42 f4       	brpl	.+16     	; 0xc5a <__stack+0x15b>
     c4a:	93 f5       	brvc	.+100    	; 0xcb0 <__stack+0x1b1>
     c4c:	19 01       	movw	r2, r18
     c4e:	7e 10       	cpse	r7, r14
     c50:	3c 15       	cp	r19, r12
     c52:	a4 10       	cpse	r10, r4
     c54:	72 01       	movw	r14, r4
     c56:	da f0       	brmi	.+54     	; 0xc8e <__stack+0x18f>
     c58:	1e ec       	ldi	r17, 0xCE	; 206
     c5a:	c2 ea       	ldi	r28, 0xA2	; 162
     c5c:	f8 eb       	ldi	r31, 0xB8	; 184
     c5e:	99 e5       	ldi	r25, 0x59	; 89
     c60:	cb db       	rcall	.-2154   	; 0x3f8 <__trampolines_end+0x334>
     c62:	40 d2       	rcall	.+1152   	; 0x10e4 <__stack+0x5e5>
     c64:	b2 c9       	rjmp	.-3228   	; 0xffffffca <__eeprom_end+0xff7effca>
     c66:	34 c5       	rjmp	.+2664   	; 0x16d0 <__stack+0xbd1>
     c68:	21 d3       	rcall	.+1602   	; 0x12ac <__stack+0x7ad>
     c6a:	b5 ea       	ldi	r27, 0xA5	; 165
     c6c:	49 0c       	add	r4, r9
     c6e:	1b 31       	cpi	r17, 0x1B	; 27
     c70:	b8 36       	cpi	r27, 0x68	; 104
     c72:	96 2e       	mov	r9, r22
     c74:	c0 0f       	add	r28, r16
     c76:	19 f5       	brne	.+70     	; 0xcbe <__stack+0x1bf>
     c78:	ac ed       	ldi	r26, 0xDC	; 220
     c7a:	55 f4       	brhc	.+20     	; 0xc90 <__stack+0x191>
     c7c:	d3 04       	cpc	r13, r3
     c7e:	a9 13       	cpse	r26, r25
     c80:	cd 14       	cp	r12, r13
     c82:	f1 10       	cpse	r15, r1
     c84:	ad 06       	cpc	r10, r29
     c86:	bb 05       	cpc	r27, r11
     c88:	70 0c       	add	r7, r0
     c8a:	96 0f       	add	r25, r22
     c8c:	41 12       	cpse	r4, r17
     c8e:	38 0b       	sbc	r19, r24
     c90:	54 03       	mulsu	r21, r20
     c92:	e6 fe       	sbrs	r14, 6
     c94:	90 fd       	sbrc	r25, 0
     c96:	45 03       	mulsu	r20, r21
     c98:	5a 0a       	sbc	r5, r26
     c9a:	e3 09       	sbc	r30, r3
     c9c:	de 04       	cpc	r13, r14
     c9e:	94 f9       	bld	r25, 4
     ca0:	f4 f3       	brlt	.-4      	; 0xc9e <__stack+0x19f>
     ca2:	4f ee       	ldi	r20, 0xEF	; 239
     ca4:	4c ec       	ldi	r20, 0xCC	; 204
     ca6:	ab e3       	ldi	r26, 0x3B	; 59
     ca8:	34 d9       	rcall	.-3480   	; 0xffffff12 <__eeprom_end+0xff7eff12>
     caa:	fd cd       	rjmp	.-1030   	; 0x8a6 <__LOCK_REGION_LENGTH__+0x4a6>
     cac:	b0 c8       	rjmp	.-3744   	; 0xfffffe0e <__eeprom_end+0xff7efe0e>
     cae:	0f c4       	rjmp	.+2078   	; 0x14ce <__stack+0x9cf>
     cb0:	ec d3       	rcall	.+2008   	; 0x148a <__stack+0x98b>
     cb2:	a4 f3       	brlt	.-24     	; 0xc9c <__stack+0x19d>
     cb4:	d9 0d       	add	r29, r9
     cb6:	0f 30       	cpi	r16, 0x0F	; 15
     cb8:	fe 36       	cpi	r31, 0x6E	; 110
     cba:	ed 27       	eor	r30, r29
     cbc:	d1 13       	cpse	r29, r17
     cbe:	b1 fa       	bst	r11, 1
     cc0:	4a f1       	brmi	.+82     	; 0xd14 <__stack+0x215>
     cc2:	c3 f7       	brvc	.-16     	; 0xcb4 <__stack+0x1b5>
     cc4:	0e 03       	fmul	r16, r22
     cc6:	06 0e       	add	r0, r22
     cc8:	cd 10       	cpse	r12, r13
     cca:	da 0a       	sbc	r13, r26
     ccc:	a3 06       	cpc	r10, r19
     cce:	ac 06       	cpc	r10, r28
     cd0:	10 0d       	add	r17, r0
     cd2:	9e 11       	cpse	r25, r14
     cd4:	f9 12       	cpse	r15, r25
     cd6:	ec 0b       	sbc	r30, r28
     cd8:	f3 00       	.word	0x00f3	; ????
     cda:	c2 f9       	bld	r28, 2
     cdc:	a2 f8       	bld	r10, 2
     cde:	7d fe       	.word	0xfe7d	; ????
     ce0:	73 06       	cpc	r7, r19
     ce2:	ff 09       	sbc	r31, r15
     ce4:	3c 08       	sbc	r3, r12
     ce6:	a3 ff       	sbrs	r26, 3
     ce8:	68 f6       	brcc	.-102    	; 0xc84 <__stack+0x185>
     cea:	d7 ee       	ldi	r29, 0xE7	; 231
     cec:	c4 e9       	ldi	r28, 0x94	; 148
     cee:	70 e6       	ldi	r23, 0x60	; 96
     cf0:	4d de       	rcall	.-870    	; 0x98c <__LOCK_REGION_LENGTH__+0x58c>
     cf2:	71 d6       	rcall	.+3298   	; 0x19d6 <__stack+0xed7>
     cf4:	c6 ca       	rjmp	.-2676   	; 0x282 <__trampolines_end+0x1be>
     cf6:	d8 c4       	rjmp	.+2480   	; 0x16a8 <__stack+0xba9>
     cf8:	3d cb       	rjmp	.-2438   	; 0x374 <__trampolines_end+0x2b0>
     cfa:	14 e5       	ldi	r17, 0x54	; 84
     cfc:	e3 0c       	add	r14, r3
     cfe:	9d 25       	eor	r25, r13
     d00:	65 34       	cpi	r22, 0x45	; 69
     d02:	5f 30       	cpi	r21, 0x0F	; 15
     d04:	77 14       	cp	r7, r7
     d06:	94 05       	cpc	r25, r4
     d08:	64 f4       	brge	.+24     	; 0xd22 <__stack+0x223>
     d0a:	70 f8       	bld	r7, 0
     d0c:	3e 07       	cpc	r19, r30
     d0e:	63 0f       	add	r22, r19
     d10:	45 12       	cpse	r4, r21
     d12:	18 0a       	sbc	r1, r24
     d14:	5d fe       	.word	0xfe5d	; ????
     d16:	77 fb       	bst	r23, 7
     d18:	63 ff       	sbrs	r22, 3
     d1a:	f3 0d       	add	r31, r3
     d1c:	52 1a       	sub	r5, r18
     d1e:	c6 1b       	sub	r28, r22
     d20:	d6 12       	cpse	r13, r22
     d22:	80 01       	movw	r16, r0
     d24:	29 f4       	brne	.+10     	; 0xd30 <__stack+0x231>
     d26:	8e f1       	brts	.+98     	; 0xd8a <__stack+0x28b>
     d28:	09 f9       	.word	0xf909	; ????
     d2a:	34 06       	cpc	r3, r20
     d2c:	db 0e       	add	r13, r27
     d2e:	53 0b       	sbc	r21, r19
     d30:	d6 fe       	sbrs	r13, 6
     d32:	9a e9       	ldi	r25, 0x9A	; 154
     d34:	12 d9       	rcall	.-3548   	; 0xffffff5a <__eeprom_end+0xff7eff5a>
     d36:	e2 d2       	rcall	.+1476   	; 0x12fc <__stack+0x7fd>
     d38:	dc d0       	rcall	.+440    	; 0xef2 <__stack+0x3f3>
     d3a:	13 d4       	rcall	.+2086   	; 0x1562 <__stack+0xa63>
     d3c:	d8 d2       	rcall	.+1456   	; 0x12ee <__stack+0x7ef>
     d3e:	ec cf       	rjmp	.-40     	; 0xd18 <__stack+0x219>
     d40:	fd da       	rcall	.-2566   	; 0x33c <__trampolines_end+0x278>
     d42:	b5 ea       	ldi	r27, 0xA5	; 165
     d44:	c5 11       	cpse	r28, r5
     d46:	44 27       	eor	r20, r20
     d48:	65 33       	cpi	r22, 0x35	; 53
     d4a:	d0 2b       	or	r29, r16
     d4c:	7d 16       	cp	r7, r29
     d4e:	d6 fc       	sbrc	r13, 6
     d50:	4a f6       	brpl	.-110    	; 0xce4 <__stack+0x1e5>
     d52:	94 f5       	brge	.+100    	; 0xdb8 <__stack+0x2b9>
     d54:	26 04       	cpc	r2, r6
     d56:	24 0d       	add	r18, r4
     d58:	96 11       	cpse	r25, r6
     d5a:	36 0a       	sbc	r3, r22
     d5c:	40 04       	cpc	r4, r0
     d5e:	71 fe       	sbrs	r7, 1
     d60:	72 03       	mulsu	r23, r18
     d62:	c0 0c       	add	r12, r0
     d64:	01 17       	cp	r16, r17
     d66:	d1 14       	cp	r13, r1
     d68:	21 10       	cpse	r2, r1
     d6a:	d2 ff       	sbrs	r29, 2
     d6c:	de f6       	brtc	.-74     	; 0xd24 <__stack+0x225>
     d6e:	97 f4       	brid	.+36     	; 0xd94 <__stack+0x295>
     d70:	15 fc       	sbrc	r1, 5
     d72:	84 05       	cpc	r24, r4
     d74:	20 0b       	sbc	r18, r16
     d76:	42 04       	cpc	r4, r2
     d78:	54 fc       	sbrc	r5, 4
     d7a:	c8 e7       	ldi	r28, 0x78	; 120
     d7c:	70 db       	rcall	.-2336   	; 0x45e <__LOCK_REGION_LENGTH__+0x5e>
     d7e:	c7 d2       	rcall	.+1422   	; 0x130e <__stack+0x80f>
     d80:	5d d3       	rcall	.+1722   	; 0x143c <__stack+0x93d>
     d82:	77 d5       	rcall	.+2798   	; 0x1872 <__stack+0xd73>
     d84:	74 d4       	rcall	.+2280   	; 0x166e <__stack+0xb6f>
     d86:	5c d8       	rcall	.-3912   	; 0xfffffe40 <__eeprom_end+0xff7efe40>
     d88:	45 e2       	ldi	r20, 0x25	; 37
     d8a:	d1 f3       	breq	.-12     	; 0xd80 <__stack+0x281>
     d8c:	90 12       	cpse	r9, r16
     d8e:	b0 25       	eor	r27, r0
     d90:	8c 2d       	mov	r24, r12
     d92:	48 23       	and	r20, r24
     d94:	a0 11       	cpse	r26, r0
     d96:	41 fd       	sbrc	r20, 1
     d98:	3b f5       	brvc	.+78     	; 0xde8 <__stack+0x2e9>
     d9a:	f6 f8       	bld	r15, 6
     d9c:	8c 04       	cpc	r8, r12
     d9e:	ef 0d       	add	r30, r15
     da0:	7b 0f       	add	r23, r27
     da2:	dc 09       	sbc	r29, r12
     da4:	5d 03       	fmul	r21, r21
     da6:	ce 00       	.word	0x00ce	; ????
     da8:	a7 05       	cpc	r26, r7
     daa:	c7 0b       	sbc	r28, r23
     dac:	fb 11       	cpse	r31, r11
     dae:	bf 0f       	add	r27, r31
     db0:	f0 05       	cpc	r31, r0
     db2:	5b fe       	.word	0xfe5b	; ????
     db4:	ab f7       	brvc	.-22     	; 0xda0 <__stack+0x2a1>
     db6:	4b fa       	.word	0xfa4b	; ????
     db8:	d5 02       	muls	r29, r21
     dba:	b6 08       	sbc	r11, r6
     dbc:	f8 0a       	sbc	r15, r24
     dbe:	6c 02       	muls	r22, r28
     dc0:	77 ef       	ldi	r23, 0xF7	; 247
     dc2:	5d e1       	ldi	r21, 0x1D	; 29
     dc4:	5c d2       	rcall	.+1208   	; 0x127e <__stack+0x77f>
     dc6:	61 cc       	rjmp	.-1854   	; 0x68a <__LOCK_REGION_LENGTH__+0x28a>
     dc8:	e1 cf       	rjmp	.-62     	; 0xd8c <__stack+0x28d>
     dca:	6f d4       	rcall	.+2270   	; 0x16aa <__stack+0xbab>
     dcc:	23 d5       	rcall	.+2630   	; 0x1814 <__stack+0xd15>
     dce:	a7 db       	rcall	.-2226   	; 0x51e <__LOCK_REGION_LENGTH__+0x11e>
     dd0:	a8 e3       	ldi	r26, 0x38	; 56
     dd2:	f4 f1       	brlt	.+124    	; 0xe50 <__stack+0x351>
     dd4:	dc 09       	sbc	r29, r12
     dd6:	aa 20       	and	r10, r10
     dd8:	ae 2c       	mov	r10, r14
     dda:	a0 2a       	or	r10, r16
     ddc:	6e 1f       	adc	r22, r30
     dde:	ea 0e       	add	r14, r26
     de0:	ca 01       	movw	r24, r20
     de2:	b7 00       	.word	0x00b7	; ????
     de4:	82 01       	movw	r16, r4
     de6:	67 04       	cpc	r6, r7
     de8:	65 04       	cpc	r6, r5
     dea:	1f 01       	movw	r2, r30
     dec:	b4 fd       	sbrc	r27, 4
     dee:	4e fe       	.word	0xfe4e	; ????
     df0:	11 03       	mulsu	r17, r17
     df2:	87 0b       	sbc	r24, r23
     df4:	b9 10       	cpse	r11, r9
     df6:	47 13       	cpse	r20, r23
     df8:	8b 0e       	add	r8, r27
     dfa:	83 09       	sbc	r24, r3
     dfc:	7c 04       	cpc	r7, r12
     dfe:	f4 02       	muls	r31, r20
     e00:	52 05       	cpc	r21, r2
     e02:	53 07       	cpc	r21, r19
     e04:	82 07       	cpc	r24, r18
     e06:	39 ff       	.word	0xff39	; ????
     e08:	6b ea       	ldi	r22, 0xAB	; 171
     e0a:	2d d7       	rcall	.+3674   	; 0x1c66 <__stack+0x1167>
     e0c:	5d c9       	rjmp	.-3398   	; 0xc8 <__trampolines_end+0x4>
     e0e:	7b c2       	rjmp	.+1270   	; 0x1306 <__stack+0x807>
     e10:	60 c7       	rjmp	.+3776   	; 0x1cd2 <__stack+0x11d3>
     e12:	3d d0       	rcall	.+122    	; 0xe8e <__stack+0x38f>
     e14:	45 d7       	rcall	.+3722   	; 0x1ca0 <__stack+0x11a1>
     e16:	00 eb       	ldi	r16, 0xB0	; 176
     e18:	3a f5       	brpl	.+78     	; 0xe68 <__stack+0x369>
     e1a:	05 0f       	add	r16, r21
     e1c:	89 13       	cpse	r24, r25
     e1e:	e5 1f       	adc	r30, r21
     e20:	6f 20       	and	r6, r15
     e22:	96 1b       	sub	r25, r22
     e24:	1e 15       	cp	r17, r14
     e26:	f7 0c       	add	r15, r7
     e28:	38 08       	sbc	r3, r8
     e2a:	38 09       	sbc	r19, r8
     e2c:	f9 07       	cpc	r31, r25
     e2e:	b8 06       	cpc	r11, r24
     e30:	d0 03       	fmuls	r21, r16
     e32:	5c 02       	muls	r21, r28
     e34:	1c 03       	fmul	r17, r20
     e36:	d1 05       	cpc	r29, r1
     e38:	22 0d       	add	r18, r2
     e3a:	c7 0f       	add	r28, r23
     e3c:	76 11       	cpse	r23, r6
     e3e:	18 0e       	add	r1, r24
     e40:	bc 09       	sbc	r27, r12
     e42:	46 02       	muls	r20, r22
     e44:	c4 00       	.word	0x00c4	; ????
     e46:	24 00       	.word	0x0024	; ????
     e48:	b6 02       	muls	r27, r22
     e4a:	60 03       	mulsu	r22, r16
     e4c:	04 00       	.word	0x0004	; ????
     e4e:	0c f9       	.word	0xf90c	; ????
     e50:	51 ee       	ldi	r21, 0xE1	; 225
     e52:	c8 e1       	ldi	r28, 0x18	; 24
     e54:	aa db       	rcall	.-2220   	; 0x5aa <__LOCK_REGION_LENGTH__+0x1aa>
     e56:	27 d9       	rcall	.-3506   	; 0xa6 <__SREG__+0x67>
     e58:	c8 d8       	rcall	.-3696   	; 0xffffffea <__eeprom_end+0xff7effea>
     e5a:	65 d9       	rcall	.-3382   	; 0x126 <__trampolines_end+0x62>
     e5c:	fb e3       	ldi	r31, 0x3B	; 59
     e5e:	5a e9       	ldi	r21, 0x9A	; 154
     e60:	6b fc       	.word	0xfc6b	; ????
     e62:	2a 0a       	sbc	r2, r26
     e64:	98 19       	sub	r25, r8
     e66:	ce 1c       	adc	r12, r14
     e68:	a7 1c       	adc	r10, r7
     e6a:	87 14       	cp	r8, r7
     e6c:	d6 0e       	add	r13, r22
     e6e:	8d 0a       	sbc	r8, r29
     e70:	0f 0a       	sbc	r0, r31
     e72:	a6 09       	sbc	r26, r6
     e74:	c2 0b       	sbc	r28, r18
     e76:	90 09       	sbc	r25, r0
     e78:	92 06       	cpc	r9, r18
     e7a:	69 01       	movw	r12, r18
     e7c:	6c ff       	.word	0xff6c	; ????
     e7e:	77 ff       	sbrs	r23, 7
     e80:	60 02       	muls	r22, r16
     e82:	82 06       	cpc	r8, r18
     e84:	9a 09       	sbc	r25, r10
     e86:	ad 09       	sbc	r26, r13
     e88:	2d 07       	cpc	r18, r29
     e8a:	f6 03       	fmuls	r23, r22
     e8c:	de 00       	.word	0x00de	; ????
     e8e:	92 00       	.word	0x0092	; ????
     e90:	f6 00       	.word	0x00f6	; ????
     e92:	c0 fe       	sbrs	r12, 0
     e94:	d1 f6       	brne	.-76     	; 0xe4a <__stack+0x34b>
     e96:	64 eb       	ldi	r22, 0xB4	; 180
     e98:	66 e1       	ldi	r22, 0x16	; 22
     e9a:	ea d7       	rcall	.+4052   	; 0x1e70 <__low_level_init+0x10>
     e9c:	3b d2       	rcall	.+1142   	; 0x1314 <__stack+0x815>
     e9e:	5e d3       	rcall	.+1724   	; 0x155c <__stack+0xa5d>
     ea0:	35 d4       	rcall	.+2154   	; 0x170c <__stack+0xc0d>
     ea2:	70 dd       	rcall	.-1312   	; 0x984 <__LOCK_REGION_LENGTH__+0x584>
     ea4:	e8 e5       	ldi	r30, 0x58	; 88
     ea6:	a2 f5       	brpl	.+104    	; 0xf10 <__stack+0x411>
     ea8:	8c fd       	.word	0xfd8c	; ????
     eaa:	9a 0a       	sbc	r9, r26
     eac:	d0 13       	cpse	r29, r16
     eae:	7d 1a       	sub	r7, r29
     eb0:	c3 1a       	sub	r12, r19
     eb2:	24 1b       	sub	r18, r20
     eb4:	98 18       	sub	r9, r8
     eb6:	86 17       	cp	r24, r22
     eb8:	6e 15       	cp	r22, r14
     eba:	ae 12       	cpse	r10, r30
     ebc:	ba 0c       	add	r11, r10
     ebe:	f7 08       	sbc	r15, r7
     ec0:	c9 04       	cpc	r12, r9
     ec2:	5d 01       	movw	r10, r26
     ec4:	4f ff       	.word	0xff4f	; ????
     ec6:	a4 fe       	sbrs	r10, 4
     ec8:	a1 fd       	sbrc	r26, 1
     eca:	48 fd       	.word	0xfd48	; ????
     ecc:	a0 fb       	bst	r26, 0
     ece:	f8 fb       	.word	0xfbf8	; ????
     ed0:	bd fb       	.word	0xfbbd	; ????
     ed2:	5d fe       	.word	0xfe5d	; ????
     ed4:	45 01       	movw	r8, r10
     ed6:	9e 04       	cpc	r9, r14
     ed8:	8e 02       	muls	r24, r30
     eda:	d4 fe       	sbrs	r13, 4
     edc:	be f3       	brts	.-18     	; 0xecc <__stack+0x3cd>
     ede:	ed e7       	ldi	r30, 0x7D	; 125
     ee0:	27 df       	rcall	.-434    	; 0xd30 <__stack+0x231>
     ee2:	7b db       	rcall	.-2314   	; 0x5da <__LOCK_REGION_LENGTH__+0x1da>
     ee4:	6e d8       	rcall	.-3876   	; 0xffffffc2 <__eeprom_end+0xff7effc2>
     ee6:	c2 d7       	rcall	.+3972   	; 0x1e6c <__low_level_init+0xc>
     ee8:	24 dd       	rcall	.-1464   	; 0x932 <__LOCK_REGION_LENGTH__+0x532>
     eea:	45 e1       	ldi	r20, 0x15	; 21
     eec:	6c ec       	ldi	r22, 0xCC	; 204
     eee:	38 fa       	.word	0xfa38	; ????
     ef0:	e8 07       	cpc	r30, r24
     ef2:	4f 10       	cpse	r4, r15
     ef4:	9b 16       	cp	r9, r27
     ef6:	3a 19       	sub	r19, r10
     ef8:	bb 18       	sub	r11, r11
     efa:	a3 17       	cp	r26, r19
     efc:	dc 16       	cp	r13, r28
     efe:	e2 15       	cp	r30, r2
     f00:	c6 14       	cp	r12, r6
     f02:	f3 11       	cpse	r31, r3
     f04:	06 0d       	add	r16, r6
     f06:	d0 06       	cpc	r13, r16
     f08:	09 02       	muls	r16, r25
     f0a:	b4 ff       	sbrs	r27, 4
     f0c:	88 fd       	.word	0xfd88	; ????
     f0e:	7b fc       	.word	0xfc7b	; ????
     f10:	71 fc       	sbrc	r7, 1
     f12:	8d fb       	.word	0xfb8d	; ????
     f14:	4a fb       	.word	0xfb4a	; ????
     f16:	a0 fb       	bst	r26, 0
     f18:	9d fd       	.word	0xfd9d	; ????
     f1a:	52 ff       	sbrs	r21, 2
     f1c:	ee 02       	muls	r30, r30
     f1e:	b5 02       	muls	r27, r21
     f20:	35 fe       	sbrs	r3, 5
     f22:	03 f6       	brvc	.-128    	; 0xea4 <__stack+0x3a5>
     f24:	09 f0       	breq	.+2      	; 0xf28 <__stack+0x429>
     f26:	21 e9       	ldi	r18, 0x91	; 145
     f28:	57 e5       	ldi	r21, 0x57	; 87
     f2a:	4e e3       	ldi	r20, 0x3E	; 62
     f2c:	6b e1       	ldi	r22, 0x1B	; 27
     f2e:	e4 e2       	ldi	r30, 0x24	; 36
     f30:	d7 e3       	ldi	r29, 0x37	; 55
     f32:	ff eb       	ldi	r31, 0xBF	; 191
     f34:	dc f1       	brlt	.+118    	; 0xfac <__stack+0x4ad>
     f36:	d3 fc       	sbrc	r13, 3
     f38:	19 07       	cpc	r17, r25
     f3a:	f8 0e       	add	r15, r24
     f3c:	b3 11       	cpse	r27, r3
     f3e:	cd 13       	cpse	r28, r29
     f40:	09 15       	cp	r16, r9
     f42:	53 16       	cp	r5, r19
     f44:	ec 16       	cp	r14, r28
     f46:	3b 17       	cp	r19, r27
     f48:	1f 15       	cp	r17, r15
     f4a:	93 11       	cpse	r25, r3
     f4c:	e9 0d       	add	r30, r9
     f4e:	32 09       	sbc	r19, r2
     f50:	25 05       	cpc	r18, r5
     f52:	82 02       	muls	r24, r18
     f54:	c9 00       	.word	0x00c9	; ????
     f56:	ae fe       	.word	0xfeae	; ????
     f58:	df fb       	.word	0xfbdf	; ????
     f5a:	dc f8       	.word	0xf8dc	; ????
     f5c:	4b f7       	brvc	.-46     	; 0xf30 <__stack+0x431>
     f5e:	52 f6       	brpl	.-108    	; 0xef4 <__stack+0x3f5>
     f60:	ea f6       	brpl	.-70     	; 0xf1c <__stack+0x41d>
     f62:	bc f8       	.word	0xf8bc	; ????
     f64:	bc f8       	.word	0xf8bc	; ????
     f66:	25 f8       	bld	r2, 5
     f68:	39 f5       	brne	.+78     	; 0xfb8 <__stack+0x4b9>
     f6a:	7b f1       	brvs	.+94     	; 0xfca <__stack+0x4cb>
     f6c:	77 ef       	ldi	r23, 0xF7	; 247
     f6e:	c7 ec       	ldi	r28, 0xC7	; 199
     f70:	b0 ea       	ldi	r27, 0xA0	; 160
     f72:	f5 e8       	ldi	r31, 0x85	; 133
     f74:	09 ea       	ldi	r16, 0xA9	; 169
     f76:	9f ea       	ldi	r25, 0xAF	; 175
     f78:	8f ef       	ldi	r24, 0xFF	; 255
     f7a:	3d f5       	brhc	.+78     	; 0xfca <__stack+0x4cb>
     f7c:	b0 fc       	sbrc	r11, 0
     f7e:	c2 00       	.word	0x00c2	; ????
     f80:	02 06       	cpc	r0, r18
     f82:	90 09       	sbc	r25, r0
     f84:	ed 0c       	add	r14, r13
     f86:	0d 0f       	add	r16, r29
     f88:	eb 11       	cpse	r30, r11
     f8a:	3d 14       	cp	r3, r13
     f8c:	31 15       	cp	r19, r1
     f8e:	71 14       	cp	r7, r1
     f90:	d6 11       	cpse	r29, r6
     f92:	56 0e       	add	r5, r22
     f94:	0c 0b       	sbc	r16, r28
     f96:	ee 08       	sbc	r14, r14
     f98:	38 06       	cpc	r3, r24
     f9a:	ec 02       	muls	r30, r28
     f9c:	55 ff       	sbrs	r21, 5
     f9e:	de fc       	.word	0xfcde	; ????
     fa0:	49 f8       	.word	0xf849	; ????
     fa2:	59 f5       	brne	.+86     	; 0xffa <__stack+0x4fb>
     fa4:	8b f3       	brvs	.-30     	; 0xf88 <__stack+0x489>
     fa6:	2a f3       	brmi	.-54     	; 0xf72 <__stack+0x473>
     fa8:	93 f2       	brvs	.-92     	; 0xf4e <__stack+0x44f>
     faa:	df f1       	brie	.+118    	; 0x1022 <__stack+0x523>
     fac:	c2 f0       	brmi	.+48     	; 0xfde <__stack+0x4df>
     fae:	04 f0       	brlt	.+0      	; 0xfb0 <__stack+0x4b1>
     fb0:	b6 ee       	ldi	r27, 0xE6	; 230
     fb2:	cd ed       	ldi	r28, 0xDD	; 221
     fb4:	73 ec       	ldi	r23, 0xC3	; 195
     fb6:	be eb       	ldi	r27, 0xBE	; 190
     fb8:	48 ea       	ldi	r20, 0xA8	; 168
     fba:	3d ec       	ldi	r19, 0xCD	; 205
     fbc:	5d f0       	brhs	.+22     	; 0xfd4 <__stack+0x4d5>
     fbe:	8c f4       	brge	.+34     	; 0xfe2 <__stack+0x4e3>
     fc0:	e4 fa       	bst	r14, 4
     fc2:	66 00       	.word	0x0066	; ????
     fc4:	54 03       	mulsu	r21, r20
     fc6:	99 05       	cpc	r25, r9
     fc8:	c8 06       	cpc	r12, r24
     fca:	03 0a       	sbc	r0, r19
     fcc:	9d 0d       	add	r25, r13
     fce:	20 11       	cpse	r18, r0
     fd0:	36 12       	cpse	r3, r22
     fd2:	2f 12       	cpse	r2, r31
     fd4:	53 10       	cpse	r5, r3
     fd6:	60 0e       	add	r6, r16
     fd8:	42 0d       	add	r20, r2
     fda:	9a 0c       	add	r9, r10
     fdc:	a0 0b       	sbc	r26, r16
     fde:	f4 09       	sbc	r31, r4
     fe0:	07 08       	sbc	r0, r7
     fe2:	70 04       	cpc	r7, r0
     fe4:	18 01       	movw	r2, r16
     fe6:	40 ff       	sbrs	r20, 0
     fe8:	6f fe       	.word	0xfe6f	; ????
     fea:	79 fc       	.word	0xfc79	; ????
     fec:	6c f9       	.word	0xf96c	; ????
     fee:	e2 f4       	brpl	.+56     	; 0x1028 <__stack+0x529>
     ff0:	1b f2       	brvs	.-122    	; 0xf78 <__stack+0x479>
     ff2:	e1 ee       	ldi	r30, 0xE1	; 225
     ff4:	b1 ed       	ldi	r27, 0xD1	; 209
     ff6:	a3 ed       	ldi	r26, 0xD3	; 211
     ff8:	cc ed       	ldi	r28, 0xDC	; 220
     ffa:	47 ed       	ldi	r20, 0xD7	; 215
     ffc:	c8 ec       	ldi	r28, 0xC8	; 200
     ffe:	da ec       	ldi	r29, 0xCA	; 202
    1000:	31 ee       	ldi	r19, 0xE1	; 225
    1002:	96 f1       	brts	.+100    	; 0x1068 <__stack+0x569>
    1004:	70 f6       	brcc	.-100    	; 0xfa2 <__stack+0x4a3>
    1006:	c7 fa       	bst	r12, 7
    1008:	01 fd       	sbrc	r16, 1
    100a:	38 ff       	.word	0xff38	; ????
    100c:	1a 01       	movw	r2, r20
    100e:	81 03       	fmuls	r16, r17
    1010:	81 05       	cpc	r24, r1
    1012:	96 08       	sbc	r9, r6
    1014:	d2 0a       	sbc	r13, r18
    1016:	1e 0b       	sbc	r17, r30
    1018:	e9 09       	sbc	r30, r9
    101a:	a8 08       	sbc	r10, r8
    101c:	23 07       	cpc	r18, r19
    101e:	3b 06       	cpc	r3, r27
    1020:	a4 05       	cpc	r26, r4
    1022:	cd 04       	cpc	r12, r13
    1024:	a7 02       	muls	r26, r23
    1026:	8b ff       	.word	0xff8b	; ????
    1028:	67 fc       	sbrc	r6, 7
    102a:	ab fa       	.word	0xfaab	; ????
    102c:	4a f9       	.word	0xf94a	; ????
    102e:	a9 f8       	.word	0xf8a9	; ????
    1030:	64 f8       	bld	r6, 4
    1032:	e2 f7       	brpl	.-8      	; 0x102c <__stack+0x52d>
    1034:	a4 f6       	brge	.-88     	; 0xfde <__stack+0x4df>
    1036:	41 f5       	brne	.+80     	; 0x1088 <__stack+0x589>
    1038:	9d f4       	brhc	.+38     	; 0x1060 <__stack+0x561>
    103a:	da f4       	brpl	.+54     	; 0x1072 <__stack+0x573>
    103c:	4d f5       	brhc	.+82     	; 0x1090 <__stack+0x591>
    103e:	88 f5       	brcc	.+98     	; 0x10a2 <__stack+0x5a3>
    1040:	8b f5       	brvc	.+98     	; 0x10a4 <__stack+0x5a5>
    1042:	f7 f4       	brid	.+60     	; 0x1080 <__stack+0x581>
    1044:	2d f5       	brhc	.+74     	; 0x1090 <__stack+0x591>
    1046:	62 f6       	brpl	.-104    	; 0xfe0 <__stack+0x4e1>
    1048:	d6 f8       	bld	r13, 6
    104a:	c5 fa       	bst	r12, 5
    104c:	f6 fc       	sbrc	r15, 6
    104e:	6d fe       	.word	0xfe6d	; ????
    1050:	65 ff       	sbrs	r22, 5
    1052:	1e 00       	.word	0x001e	; ????
    1054:	ba 01       	movw	r22, r20
    1056:	cf 03       	fmulsu	r20, r23
    1058:	e3 05       	cpc	r30, r3
    105a:	b1 06       	cpc	r11, r17
    105c:	ee 06       	cpc	r14, r30
    105e:	3a 06       	cpc	r3, r26
    1060:	64 05       	cpc	r22, r4
    1062:	fc 04       	cpc	r15, r12
    1064:	fb 04       	cpc	r15, r11
    1066:	b3 04       	cpc	r11, r3
    1068:	cb 03       	fmulsu	r20, r19
    106a:	ef 01       	movw	r28, r30
    106c:	5d 00       	.word	0x005d	; ????
    106e:	f4 fd       	sbrc	r31, 4
    1070:	67 fc       	sbrc	r6, 7
    1072:	6e fb       	.word	0xfb6e	; ????
    1074:	40 fb       	bst	r20, 0
    1076:	8a fa       	.word	0xfa8a	; ????
    1078:	a5 f9       	bld	r26, 5
    107a:	c2 f8       	bld	r12, 2
    107c:	79 f8       	.word	0xf879	; ????
    107e:	95 f8       	bld	r9, 5
    1080:	61 f9       	bld	r22, 1
    1082:	87 fa       	bst	r8, 7
    1084:	2f fb       	.word	0xfb2f	; ????
    1086:	ee fb       	.word	0xfbee	; ????
    1088:	81 fc       	sbrc	r8, 1
    108a:	1e fd       	.word	0xfd1e	; ????
    108c:	9c fd       	.word	0xfd9c	; ????
    108e:	a1 fe       	sbrs	r10, 1
    1090:	af ff       	.word	0xffaf	; ????
    1092:	65 00       	.word	0x0065	; ????
    1094:	97 00       	.word	0x0097	; ????
    1096:	a0 00       	.word	0x00a0	; ????
    1098:	a2 00       	.word	0x00a2	; ????
    109a:	db 00       	.word	0x00db	; ????
    109c:	27 01       	movw	r4, r14
    109e:	bb 01       	movw	r22, r22
    10a0:	16 02       	muls	r17, r22
    10a2:	15 02       	muls	r17, r21
    10a4:	e2 01       	movw	r28, r4
    10a6:	90 01       	movw	r18, r0
    10a8:	5b 01       	movw	r10, r22
    10aa:	50 01       	movw	r10, r0
    10ac:	46 01       	movw	r8, r12
    10ae:	05 01       	movw	r0, r10
    10b0:	73 00       	.word	0x0073	; ????
    10b2:	b4 ff       	sbrs	r27, 4
    10b4:	e4 fe       	sbrs	r14, 4
    10b6:	78 fe       	.word	0xfe78	; ????
    10b8:	ee fd       	.word	0xfdee	; ????
    10ba:	a1 fd       	sbrc	r26, 1
    10bc:	5f fd       	.word	0xfd5f	; ????
    10be:	29 fd       	.word	0xfd29	; ????
    10c0:	ab fc       	.word	0xfcab	; ????
    10c2:	10 fc       	sbrc	r1, 0
    10c4:	8d fb       	.word	0xfb8d	; ????
    10c6:	4b fb       	.word	0xfb4b	; ????
    10c8:	35 fb       	bst	r19, 5
    10ca:	48 fb       	.word	0xfb48	; ????
    10cc:	90 fb       	bst	r25, 0
    10ce:	c7 fb       	bst	r28, 7
    10d0:	0f fc       	.word	0xfc0f	; ????
    10d2:	41 fc       	sbrc	r4, 1
    10d4:	8f fc       	.word	0xfc8f	; ????
    10d6:	da fc       	.word	0xfcda	; ????
    10d8:	7b fd       	.word	0xfd7b	; ????
    10da:	46 fe       	sbrs	r4, 6
    10dc:	03 ff       	sbrs	r16, 3
    10de:	73 ff       	sbrs	r23, 3
    10e0:	f3 ff       	sbrs	r31, 3
    10e2:	4a 00       	.word	0x004a	; ????
    10e4:	cb 00       	.word	0x00cb	; ????
    10e6:	10 01       	movw	r2, r0
    10e8:	84 01       	movw	r16, r8
    10ea:	d5 01       	movw	r26, r10
    10ec:	0e 02       	muls	r16, r30
    10ee:	3d 02       	muls	r19, r29
    10f0:	bf 02       	muls	r27, r31
    10f2:	55 03       	mulsu	r21, r21
    10f4:	dc 03       	fmulsu	r21, r20
    10f6:	fd 03       	fmulsu	r23, r21
    10f8:	f1 03       	fmuls	r23, r17
    10fa:	94 03       	fmuls	r17, r20
    10fc:	4a 03       	fmul	r20, r18
    10fe:	0f 03       	fmul	r16, r23
    1100:	f8 02       	muls	r31, r24
    1102:	e3 02       	muls	r30, r19
    1104:	73 02       	muls	r23, r19
    1106:	d8 01       	movw	r26, r16
    1108:	5d 01       	movw	r10, r26
    110a:	a7 00       	.word	0x00a7	; ????
    110c:	07 00       	.word	0x0007	; ????
    110e:	9d ff       	.word	0xff9d	; ????
    1110:	54 ff       	sbrs	r21, 4
    1112:	d7 fe       	sbrs	r13, 7
    1114:	4d fe       	.word	0xfe4d	; ????
    1116:	c3 fd       	sbrc	r28, 3
    1118:	a3 fd       	sbrc	r26, 3
    111a:	33 fd       	sbrc	r19, 3
    111c:	1a fd       	.word	0xfd1a	; ????
    111e:	f9 fc       	.word	0xfcf9	; ????
    1120:	07 fd       	sbrc	r16, 7
    1122:	5a fd       	.word	0xfd5a	; ????
    1124:	ac fd       	.word	0xfdac	; ????
    1126:	30 fe       	sbrs	r3, 0
    1128:	80 fe       	sbrs	r8, 0
    112a:	35 ff       	sbrs	r19, 5
    112c:	bc ff       	.word	0xffbc	; ????
    112e:	f3 ff       	sbrs	r31, 3
    1130:	0a 00       	.word	0x000a	; ????
    1132:	ff ff       	.word	0xffff	; ????
    1134:	cf ff       	.word	0xffcf	; ????
    1136:	ab ff       	.word	0xffab	; ????
    1138:	91 ff       	sbrs	r25, 1
    113a:	61 ff       	sbrs	r22, 1
    113c:	26 ff       	sbrs	r18, 6
    113e:	0b ff       	.word	0xff0b	; ????
    1140:	5e ff       	.word	0xff5e	; ????
    1142:	f8 ff       	.word	0xfff8	; ????
    1144:	c5 00       	.word	0x00c5	; ????
    1146:	6a 01       	movw	r12, r20
    1148:	c0 01       	movw	r24, r0
    114a:	b8 01       	movw	r22, r16
    114c:	76 01       	movw	r14, r12
    114e:	46 01       	movw	r8, r12
    1150:	63 01       	movw	r12, r6
    1152:	6e 01       	movw	r12, r28
    1154:	a4 01       	movw	r20, r8
    1156:	f5 01       	movw	r30, r10
    1158:	3a 02       	muls	r19, r26
    115a:	44 02       	muls	r20, r20
    115c:	5b 02       	muls	r21, r27
    115e:	8b 02       	muls	r24, r27
    1160:	cd 02       	muls	r28, r29
    1162:	0f 03       	fmul	r16, r23
    1164:	2f 03       	fmul	r18, r23
    1166:	19 03       	fmul	r17, r17
    1168:	96 02       	muls	r25, r22
    116a:	bc 01       	movw	r22, r24
    116c:	da 00       	.word	0x00da	; ????
    116e:	00 00       	nop
    1170:	7c ff       	.word	0xff7c	; ????
    1172:	33 ff       	sbrs	r19, 3
    1174:	fc fe       	.word	0xfefc	; ????
    1176:	be fe       	.word	0xfebe	; ????
    1178:	59 fe       	.word	0xfe59	; ????
    117a:	f7 fd       	sbrc	r31, 7
    117c:	48 fd       	.word	0xfd48	; ????
    117e:	b6 fc       	sbrc	r11, 6
    1180:	90 fc       	sbrc	r9, 0
    1182:	9b fc       	.word	0xfc9b	; ????
    1184:	00 fd       	sbrc	r16, 0
    1186:	5b fd       	.word	0xfd5b	; ????
    1188:	8b fd       	.word	0xfd8b	; ????
    118a:	90 fd       	sbrc	r25, 0
    118c:	aa fd       	.word	0xfdaa	; ????
    118e:	eb fd       	.word	0xfdeb	; ????
    1190:	5a fe       	.word	0xfe5a	; ????
    1192:	a7 fe       	sbrs	r10, 7
    1194:	54 ff       	sbrs	r21, 4
    1196:	00 00       	nop
    1198:	73 00       	.word	0x0073	; ????
    119a:	b8 00       	.word	0x00b8	; ????
    119c:	f8 00       	.word	0x00f8	; ????
    119e:	34 01       	movw	r6, r8
    11a0:	72 01       	movw	r14, r4
    11a2:	c9 01       	movw	r24, r18
    11a4:	12 02       	muls	r17, r18
    11a6:	7c 02       	muls	r23, r28
    11a8:	88 02       	muls	r24, r24
    11aa:	30 02       	muls	r19, r16
    11ac:	be 01       	movw	r22, r28
    11ae:	ec 00       	.word	0x00ec	; ????
    11b0:	5b 00       	.word	0x005b	; ????
    11b2:	fe ff       	.word	0xfffe	; ????
    11b4:	dc ff       	.word	0xffdc	; ????
    11b6:	bb ff       	.word	0xffbb	; ????
    11b8:	99 ff       	.word	0xff99	; ????
    11ba:	66 ff       	sbrs	r22, 6
    11bc:	21 ff       	sbrs	r18, 1
    11be:	ce fe       	.word	0xfece	; ????
    11c0:	83 fe       	sbrs	r8, 3
    11c2:	79 fe       	.word	0xfe79	; ????
    11c4:	75 fe       	sbrs	r7, 5
    11c6:	88 fe       	.word	0xfe88	; ????
    11c8:	7e fe       	.word	0xfe7e	; ????
    11ca:	62 fe       	sbrs	r6, 2
    11cc:	45 fe       	sbrs	r4, 5
    11ce:	3b fe       	.word	0xfe3b	; ????
    11d0:	5f fe       	.word	0xfe5f	; ????
    11d2:	ab fe       	.word	0xfeab	; ????
    11d4:	f0 fe       	sbrs	r15, 0
    11d6:	43 ff       	sbrs	r20, 3
    11d8:	a0 ff       	sbrs	r26, 0
    11da:	04 00       	.word	0x0004	; ????
    11dc:	2d 00       	.word	0x002d	; ????
    11de:	5b 00       	.word	0x005b	; ????
    11e0:	73 00       	.word	0x0073	; ????
    11e2:	7f 00       	.word	0x007f	; ????
    11e4:	70 00       	.word	0x0070	; ????
    11e6:	6e 00       	.word	0x006e	; ????
    11e8:	68 00       	.word	0x0068	; ????
    11ea:	5b 00       	.word	0x005b	; ????
    11ec:	5c 00       	.word	0x005c	; ????
    11ee:	6c 00       	.word	0x006c	; ????
    11f0:	51 00       	.word	0x0051	; ????
    11f2:	3a 00       	.word	0x003a	; ????
    11f4:	4d 00       	.word	0x004d	; ????
    11f6:	42 00       	.word	0x0042	; ????
    11f8:	73 00       	.word	0x0073	; ????
    11fa:	a0 00       	.word	0x00a0	; ????
    11fc:	b9 00       	.word	0x00b9	; ????
    11fe:	e2 00       	.word	0x00e2	; ????
    1200:	f9 00       	.word	0x00f9	; ????
    1202:	f9 00       	.word	0x00f9	; ????
    1204:	f4 00       	.word	0x00f4	; ????
    1206:	f5 00       	.word	0x00f5	; ????
    1208:	d5 00       	.word	0x00d5	; ????
    120a:	e6 00       	.word	0x00e6	; ????
    120c:	e5 00       	.word	0x00e5	; ????
    120e:	e2 00       	.word	0x00e2	; ????
    1210:	e0 00       	.word	0x00e0	; ????
    1212:	d2 00       	.word	0x00d2	; ????
    1214:	bb 00       	.word	0x00bb	; ????
    1216:	a6 00       	.word	0x00a6	; ????
    1218:	a3 00       	.word	0x00a3	; ????
    121a:	97 00       	.word	0x0097	; ????
    121c:	9b 00       	.word	0x009b	; ????
    121e:	a4 00       	.word	0x00a4	; ????
    1220:	ba 00       	.word	0x00ba	; ????
    1222:	b1 00       	.word	0x00b1	; ????
    1224:	b0 00       	.word	0x00b0	; ????
    1226:	b6 00       	.word	0x00b6	; ????
    1228:	ae 00       	.word	0x00ae	; ????
    122a:	95 00       	.word	0x0095	; ????
    122c:	89 00       	.word	0x0089	; ????
    122e:	80 00       	.word	0x0080	; ????
    1230:	6f 00       	.word	0x006f	; ????
    1232:	5d 00       	.word	0x005d	; ????
    1234:	47 00       	.word	0x0047	; ????
    1236:	3a 00       	.word	0x003a	; ????
    1238:	1d 00       	.word	0x001d	; ????
    123a:	13 00       	.word	0x0013	; ????
    123c:	f8 ff       	.word	0xfff8	; ????
    123e:	fa ff       	.word	0xfffa	; ????
    1240:	de ff       	.word	0xffde	; ????
    1242:	e1 ff       	sbrs	r30, 1
    1244:	db ff       	.word	0xffdb	; ????
    1246:	ea ff       	.word	0xffea	; ????
    1248:	ea ff       	.word	0xffea	; ????
    124a:	ef ff       	.word	0xffef	; ????
    124c:	0c 00       	.word	0x000c	; ????
    124e:	1a 00       	.word	0x001a	; ????
    1250:	27 00       	.word	0x0027	; ????
    1252:	31 00       	.word	0x0031	; ????
    1254:	45 00       	.word	0x0045	; ????
    1256:	55 00       	.word	0x0055	; ????
    1258:	51 00       	.word	0x0051	; ????
    125a:	5b 00       	.word	0x005b	; ????
    125c:	65 00       	.word	0x0065	; ????
    125e:	6d 00       	.word	0x006d	; ????
    1260:	66 00       	.word	0x0066	; ????
    1262:	6d 00       	.word	0x006d	; ????
    1264:	6a 00       	.word	0x006a	; ????
    1266:	6a 00       	.word	0x006a	; ????
    1268:	72 00       	.word	0x0072	; ????
    126a:	6a 00       	.word	0x006a	; ????
    126c:	6c 00       	.word	0x006c	; ????
    126e:	78 00       	.word	0x0078	; ????
    1270:	78 00       	.word	0x0078	; ????
    1272:	7e 00       	.word	0x007e	; ????
    1274:	84 00       	.word	0x0084	; ????
    1276:	86 00       	.word	0x0086	; ????
    1278:	8d 00       	.word	0x008d	; ????
    127a:	86 00       	.word	0x0086	; ????
    127c:	8c 00       	.word	0x008c	; ????
    127e:	95 00       	.word	0x0095	; ????
    1280:	97 00       	.word	0x0097	; ????
    1282:	9b 00       	.word	0x009b	; ????
    1284:	96 00       	.word	0x0096	; ????
    1286:	a3 00       	.word	0x00a3	; ????
    1288:	97 00       	.word	0x0097	; ????
    128a:	a4 00       	.word	0x00a4	; ????
    128c:	93 00       	.word	0x0093	; ????
    128e:	8b 00       	.word	0x008b	; ????
    1290:	88 00       	.word	0x0088	; ????
    1292:	88 00       	.word	0x0088	; ????
    1294:	82 00       	.word	0x0082	; ????
    1296:	7e 00       	.word	0x007e	; ????
    1298:	7d 00       	.word	0x007d	; ????
    129a:	81 00       	.word	0x0081	; ????
    129c:	79 00       	.word	0x0079	; ????
    129e:	76 00       	.word	0x0076	; ????
    12a0:	69 00       	.word	0x0069	; ????
    12a2:	66 00       	.word	0x0066	; ????
    12a4:	6c 00       	.word	0x006c	; ????
    12a6:	6f 00       	.word	0x006f	; ????
    12a8:	5f 00       	.word	0x005f	; ????
    12aa:	60 00       	.word	0x0060	; ????
    12ac:	5d 00       	.word	0x005d	; ????
    12ae:	54 00       	.word	0x0054	; ????
    12b0:	55 00       	.word	0x0055	; ????
    12b2:	65 00       	.word	0x0065	; ????
    12b4:	4b 00       	.word	0x004b	; ????
    12b6:	4a 00       	.word	0x004a	; ????
    12b8:	4e 00       	.word	0x004e	; ????
    12ba:	32 00       	.word	0x0032	; ????
    12bc:	27 00       	.word	0x0027	; ????
    12be:	25 00       	.word	0x0025	; ????
    12c0:	1c 00       	.word	0x001c	; ????
    12c2:	03 00       	.word	0x0003	; ????
    12c4:	21 00       	.word	0x0021	; ????
    12c6:	15 00       	.word	0x0015	; ????
    12c8:	0a 00       	.word	0x000a	; ????
    12ca:	03 00       	.word	0x0003	; ????
    12cc:	ff ff       	.word	0xffff	; ????
    12ce:	12 00       	.word	0x0012	; ????
    12d0:	0c 00       	.word	0x000c	; ????
    12d2:	04 00       	.word	0x0004	; ????
    12d4:	09 00       	.word	0x0009	; ????
    12d6:	0c 00       	.word	0x000c	; ????
    12d8:	1f 00       	.word	0x001f	; ????
    12da:	30 00       	.word	0x0030	; ????
    12dc:	2d 00       	.word	0x002d	; ????
    12de:	2a 00       	.word	0x002a	; ????
    12e0:	37 00       	.word	0x0037	; ????
    12e2:	29 00       	.word	0x0029	; ????
    12e4:	1d 00       	.word	0x001d	; ????
    12e6:	30 00       	.word	0x0030	; ????
    12e8:	2c 00       	.word	0x002c	; ????
    12ea:	17 00       	.word	0x0017	; ????
    12ec:	08 00       	.word	0x0008	; ????
    12ee:	14 00       	.word	0x0014	; ????
    12f0:	13 00       	.word	0x0013	; ????
    12f2:	13 00       	.word	0x0013	; ????
    12f4:	17 00       	.word	0x0017	; ????
    12f6:	fa ff       	.word	0xfffa	; ????
    12f8:	ed ff       	.word	0xffed	; ????
    12fa:	f1 ff       	sbrs	r31, 1
    12fc:	06 00       	.word	0x0006	; ????
    12fe:	fb ff       	.word	0xfffb	; ????
    1300:	f9 ff       	.word	0xfff9	; ????
    1302:	00 00       	nop
    1304:	1c 00       	.word	0x001c	; ????
    1306:	37 00       	.word	0x0037	; ????
    1308:	2d 00       	.word	0x002d	; ????
    130a:	03 00       	.word	0x0003	; ????
    130c:	e7 ff       	sbrs	r30, 7
    130e:	04 00       	.word	0x0004	; ????
    1310:	58 00       	.word	0x0058	; ????
    1312:	3b 00       	.word	0x003b	; ????
    1314:	1b 00       	.word	0x001b	; ????
    1316:	04 00       	.word	0x0004	; ????
    1318:	ec ff       	.word	0xffec	; ????
    131a:	04 00       	.word	0x0004	; ????
    131c:	19 00       	.word	0x0019	; ????
    131e:	3f 00       	.word	0x003f	; ????
    1320:	45 00       	.word	0x0045	; ????
    1322:	f5 ff       	sbrs	r31, 5
    1324:	bc ff       	.word	0xffbc	; ????
    1326:	d9 ff       	.word	0xffd9	; ????
    1328:	45 00       	.word	0x0045	; ????
    132a:	86 00       	.word	0x0086	; ????
    132c:	62 00       	.word	0x0062	; ????
    132e:	e0 ff       	sbrs	r30, 0
    1330:	e0 ff       	sbrs	r30, 0
    1332:	15 00       	.word	0x0015	; ????
    1334:	40 00       	.word	0x0040	; ????
    1336:	33 00       	.word	0x0033	; ????
    1338:	45 00       	.word	0x0045	; ????
    133a:	20 00       	.word	0x0020	; ????
    133c:	db ff       	.word	0xffdb	; ????
    133e:	b7 ff       	sbrs	r27, 7
    1340:	d3 ff       	sbrs	r29, 3
    1342:	43 00       	.word	0x0043	; ????
    1344:	42 00       	.word	0x0042	; ????
    1346:	00 00       	nop
    1348:	c0 ff       	sbrs	r28, 0
    134a:	21 00       	.word	0x0021	; ????
    134c:	3d 00       	.word	0x003d	; ????
    134e:	55 00       	.word	0x0055	; ????
    1350:	03 00       	.word	0x0003	; ????
    1352:	a9 ff       	.word	0xffa9	; ????
    1354:	71 ff       	sbrs	r23, 1
    1356:	60 ff       	sbrs	r22, 0
    1358:	4f 00       	.word	0x004f	; ????
    135a:	15 03       	mulsu	r17, r21
    135c:	4a 01       	movw	r8, r20
    135e:	c2 ff       	sbrs	r28, 2
    1360:	92 fe       	sbrs	r9, 2
    1362:	49 00       	.word	0x0049	; ????
    1364:	4d 02       	muls	r20, r29
    1366:	4d 01       	movw	r8, r26
    1368:	e0 ff       	sbrs	r30, 0
    136a:	95 fd       	sbrc	r25, 5
    136c:	35 fd       	sbrc	r19, 5
    136e:	b4 fe       	sbrs	r11, 4
    1370:	39 00       	.word	0x0039	; ????
    1372:	d9 fe       	.word	0xfed9	; ????
    1374:	24 ff       	sbrs	r18, 4
    1376:	29 fe       	.word	0xfe29	; ????
    1378:	2d fe       	.word	0xfe2d	; ????
    137a:	50 00       	.word	0x0050	; ????
    137c:	6f 01       	movw	r12, r30
    137e:	18 ff       	.word	0xff18	; ????
    1380:	5f fe       	.word	0xfe5f	; ????
    1382:	16 ff       	sbrs	r17, 6
    1384:	a8 fd       	.word	0xfda8	; ????
    1386:	1e fc       	.word	0xfc1e	; ????
    1388:	40 fd       	sbrc	r20, 0
    138a:	83 ff       	sbrs	r24, 3
    138c:	e3 00       	.word	0x00e3	; ????
    138e:	13 01       	movw	r2, r6
    1390:	64 00       	.word	0x0064	; ????
    1392:	8a fe       	.word	0xfe8a	; ????
    1394:	22 ff       	sbrs	r18, 2
    1396:	47 00       	.word	0x0047	; ????
    1398:	fb ff       	.word	0xfffb	; ????
    139a:	e2 ff       	sbrs	r30, 2
    139c:	10 fe       	sbrs	r1, 0
    139e:	16 fe       	sbrs	r1, 6
    13a0:	91 fd       	sbrc	r25, 1
    13a2:	46 ff       	sbrs	r20, 6
    13a4:	c6 fe       	sbrs	r12, 6
    13a6:	69 ff       	.word	0xff69	; ????
    13a8:	2a ff       	.word	0xff2a	; ????
    13aa:	cf ff       	.word	0xffcf	; ????
    13ac:	71 fe       	sbrs	r7, 1
    13ae:	c9 fc       	.word	0xfcc9	; ????
    13b0:	bd fd       	.word	0xfdbd	; ????
    13b2:	b4 fb       	bst	r27, 4
    13b4:	8e fb       	.word	0xfb8e	; ????
    13b6:	9c fc       	.word	0xfc9c	; ????
    13b8:	f3 fc       	sbrc	r15, 3
    13ba:	c0 fe       	sbrs	r12, 0
    13bc:	74 ff       	sbrs	r23, 4
    13be:	87 fd       	sbrc	r24, 7
    13c0:	7d fd       	.word	0xfd7d	; ????
    13c2:	7e 01       	movw	r14, r28
    13c4:	2b 04       	cpc	r2, r11
    13c6:	13 04       	cpc	r1, r3
    13c8:	48 03       	fmul	r20, r16
    13ca:	0a ff       	.word	0xff0a	; ????
    13cc:	18 ff       	.word	0xff18	; ????
    13ce:	2e 02       	muls	r18, r30
    13d0:	a8 03       	fmulsu	r18, r16
    13d2:	08 03       	fmul	r16, r16
    13d4:	3f 03       	fmul	r19, r23
    13d6:	13 04       	cpc	r1, r3
    13d8:	44 03       	mulsu	r20, r20
    13da:	48 01       	movw	r8, r16
    13dc:	eb fe       	.word	0xfeeb	; ????
    13de:	31 00       	.word	0x0031	; ????
    13e0:	d8 ff       	.word	0xffd8	; ????
    13e2:	66 00       	.word	0x0066	; ????
    13e4:	e8 fd       	.word	0xfde8	; ????
    13e6:	63 ff       	sbrs	r22, 3
    13e8:	a2 00       	.word	0x00a2	; ????
    13ea:	68 01       	movw	r12, r16
    13ec:	5b 00       	.word	0x005b	; ????
    13ee:	ae ff       	.word	0xffae	; ????
    13f0:	43 00       	.word	0x0043	; ????
    13f2:	8c 01       	movw	r16, r24
    13f4:	37 00       	.word	0x0037	; ????
    13f6:	ef fb       	.word	0xfbef	; ????
    13f8:	c0 f8       	bld	r12, 0
    13fa:	c6 fb       	bst	r28, 6
    13fc:	6b 01       	movw	r12, r22
    13fe:	60 02       	muls	r22, r16
    1400:	5f fe       	.word	0xfe5f	; ????
    1402:	b8 fa       	.word	0xfab8	; ????
    1404:	e3 fb       	bst	r30, 3
    1406:	52 ff       	sbrs	r21, 2
    1408:	dc ff       	.word	0xffdc	; ????
    140a:	c5 fd       	sbrc	r28, 5
    140c:	c4 fb       	bst	r28, 4
    140e:	0f 00       	.word	0x000f	; ????
    1410:	dd 00       	.word	0x00dd	; ????
    1412:	c3 00       	.word	0x00c3	; ????
    1414:	7d f7       	brhc	.-34     	; 0x13f4 <__stack+0x8f5>
    1416:	80 f6       	brcc	.-96     	; 0x13b8 <__stack+0x8b9>
    1418:	e6 fc       	sbrc	r14, 6
    141a:	b7 01       	movw	r22, r14
    141c:	2b 01       	movw	r4, r22
    141e:	76 fd       	sbrc	r23, 6
    1420:	3d fa       	.word	0xfa3d	; ????
    1422:	95 fb       	bst	r25, 5
    1424:	22 ff       	sbrs	r18, 2
    1426:	77 fd       	sbrc	r23, 7
    1428:	06 fe       	sbrs	r0, 6
    142a:	44 fb       	bst	r20, 4
    142c:	e0 f9       	bld	r30, 0
    142e:	00 fa       	bst	r0, 0
    1430:	f8 fc       	.word	0xfcf8	; ????
    1432:	b2 ff       	sbrs	r27, 2
    1434:	c0 fd       	sbrc	r28, 0
    1436:	59 fe       	.word	0xfe59	; ????
    1438:	81 00       	.word	0x0081	; ????
    143a:	df 01       	movw	r26, r30
    143c:	d1 ff       	sbrs	r29, 1
    143e:	08 fd       	.word	0xfd08	; ????
    1440:	1d fc       	.word	0xfc1d	; ????
    1442:	5d fe       	.word	0xfe5d	; ????
    1444:	2c 02       	muls	r18, r28
    1446:	eb 00       	.word	0x00eb	; ????
    1448:	dd ff       	.word	0xffdd	; ????
    144a:	36 01       	movw	r6, r12
    144c:	a9 ff       	.word	0xffa9	; ????
    144e:	92 ff       	sbrs	r25, 2
    1450:	4f fe       	.word	0xfe4f	; ????
    1452:	94 ff       	sbrs	r25, 4
    1454:	ea fe       	.word	0xfeea	; ????
    1456:	4a 00       	.word	0x004a	; ????
    1458:	0a ff       	.word	0xff0a	; ????
    145a:	30 fc       	sbrc	r3, 0
    145c:	18 fd       	.word	0xfd18	; ????
    145e:	23 fe       	sbrs	r2, 3
    1460:	fc ff       	.word	0xfffc	; ????
    1462:	3e fe       	.word	0xfe3e	; ????
    1464:	06 fd       	sbrc	r16, 6
    1466:	b4 fd       	sbrc	r27, 4
    1468:	b2 00       	.word	0x00b2	; ????
    146a:	05 00       	.word	0x0005	; ????
    146c:	f6 fe       	sbrs	r15, 6
    146e:	e3 fd       	sbrc	r30, 3
    1470:	4c ff       	.word	0xff4c	; ????
    1472:	4b 01       	movw	r8, r22
    1474:	75 ff       	sbrs	r23, 5
    1476:	1c ff       	.word	0xff1c	; ????
    1478:	3e ff       	.word	0xff3e	; ????
    147a:	0d ff       	.word	0xff0d	; ????
    147c:	c3 fd       	sbrc	r28, 3
    147e:	de fc       	.word	0xfcde	; ????
    1480:	99 fc       	.word	0xfc99	; ????
    1482:	50 fe       	sbrs	r5, 0
    1484:	b5 fd       	sbrc	r27, 5
    1486:	99 fd       	.word	0xfd99	; ????
    1488:	fe fd       	.word	0xfdfe	; ????
    148a:	fb fe       	.word	0xfefb	; ????
    148c:	30 ff       	sbrs	r19, 0
    148e:	aa ff       	.word	0xffaa	; ????
    1490:	8d fc       	.word	0xfc8d	; ????
    1492:	f7 fd       	sbrc	r31, 7
    1494:	a0 fe       	sbrs	r10, 0
    1496:	de ff       	.word	0xffde	; ????
    1498:	06 00       	.word	0x0006	; ????
    149a:	ba fd       	.word	0xfdba	; ????
    149c:	1d fe       	.word	0xfe1d	; ????
    149e:	9a ff       	.word	0xff9a	; ????
    14a0:	9f fe       	.word	0xfe9f	; ????
    14a2:	80 fe       	sbrs	r8, 0
    14a4:	88 fd       	.word	0xfd88	; ????
    14a6:	1c fd       	.word	0xfd1c	; ????
    14a8:	c6 fd       	sbrc	r28, 6
    14aa:	d8 fd       	.word	0xfdd8	; ????
    14ac:	ab fd       	.word	0xfdab	; ????
    14ae:	31 fe       	sbrs	r3, 1
    14b0:	e4 fd       	sbrc	r30, 4
    14b2:	6e ff       	.word	0xff6e	; ????
    14b4:	21 00       	.word	0x0021	; ????
    14b6:	06 ff       	sbrs	r16, 6
    14b8:	21 fe       	sbrs	r2, 1
    14ba:	e9 fe       	.word	0xfee9	; ????
    14bc:	7d 00       	.word	0x007d	; ????
    14be:	34 ff       	sbrs	r19, 4
    14c0:	c7 fe       	sbrs	r12, 7
    14c2:	5c ff       	.word	0xff5c	; ????
    14c4:	43 00       	.word	0x0043	; ????
    14c6:	7b 00       	.word	0x007b	; ????
    14c8:	0e ff       	.word	0xff0e	; ????
    14ca:	ab fe       	.word	0xfeab	; ????
    14cc:	50 ff       	sbrs	r21, 0
    14ce:	4f 00       	.word	0x004f	; ????
    14d0:	4d 01       	movw	r8, r26
    14d2:	6c 00       	.word	0x006c	; ????
    14d4:	3a 00       	.word	0x003a	; ????
    14d6:	80 01       	movw	r16, r0
    14d8:	5a 01       	movw	r10, r20
    14da:	59 00       	.word	0x0059	; ????
    14dc:	a2 ff       	sbrs	r26, 2
    14de:	52 fe       	sbrs	r5, 2
    14e0:	24 fe       	sbrs	r2, 4
    14e2:	c6 fe       	sbrs	r12, 6
    14e4:	c5 fe       	sbrs	r12, 5
    14e6:	f2 fd       	sbrc	r31, 2
    14e8:	5e fe       	.word	0xfe5e	; ????
    14ea:	26 fe       	sbrs	r2, 6
    14ec:	15 ff       	sbrs	r17, 5
    14ee:	43 fe       	sbrs	r4, 3
    14f0:	1b fe       	.word	0xfe1b	; ????
    14f2:	50 fe       	sbrs	r5, 0
    14f4:	d4 fe       	sbrs	r13, 4
    14f6:	1f fe       	.word	0xfe1f	; ????
    14f8:	c1 fd       	sbrc	r28, 1
    14fa:	c9 fd       	.word	0xfdc9	; ????
    14fc:	53 ff       	sbrs	r21, 3
    14fe:	00 00       	nop
    1500:	05 01       	movw	r0, r10
    1502:	7e 00       	.word	0x007e	; ????
    1504:	06 02       	muls	r16, r22
    1506:	42 02       	muls	r20, r18
    1508:	24 03       	mulsu	r18, r20
    150a:	e9 02       	muls	r30, r25
    150c:	6f 01       	movw	r12, r30
    150e:	c9 00       	.word	0x00c9	; ????
    1510:	54 00       	.word	0x0054	; ????
    1512:	3a ff       	.word	0xff3a	; ????
    1514:	37 fe       	sbrs	r3, 7
    1516:	7b fd       	.word	0xfd7b	; ????
    1518:	48 fc       	.word	0xfc48	; ????
    151a:	5c fd       	.word	0xfd5c	; ????
    151c:	47 fd       	sbrc	r20, 7
    151e:	98 fd       	.word	0xfd98	; ????
    1520:	db fd       	.word	0xfddb	; ????
    1522:	05 ff       	sbrs	r16, 5
    1524:	e2 ff       	sbrs	r30, 2
    1526:	68 00       	.word	0x0068	; ????
    1528:	70 01       	movw	r14, r0
    152a:	23 03       	mulsu	r18, r19
    152c:	87 04       	cpc	r8, r7
    152e:	e6 04       	cpc	r14, r6
    1530:	45 05       	cpc	r20, r5
    1532:	18 06       	cpc	r1, r24
    1534:	ef 05       	cpc	r30, r15
    1536:	9c 04       	cpc	r9, r12
    1538:	9f 03       	fmulsu	r17, r23
    153a:	8f 02       	muls	r24, r31
    153c:	a2 00       	.word	0x00a2	; ????
    153e:	e4 fe       	sbrs	r14, 4
    1540:	b5 fe       	sbrs	r11, 5
    1542:	95 fe       	sbrs	r9, 5
    1544:	4f fe       	.word	0xfe4f	; ????
    1546:	34 fd       	sbrc	r19, 4
    1548:	33 fd       	sbrc	r19, 3
    154a:	e4 fd       	sbrc	r30, 4
    154c:	43 fe       	sbrs	r4, 3
    154e:	59 fe       	.word	0xfe59	; ????
    1550:	92 fe       	sbrs	r9, 2
    1552:	75 ff       	sbrs	r23, 5
    1554:	d1 00       	.word	0x00d1	; ????
    1556:	6e 00       	.word	0x006e	; ????
    1558:	b4 00       	.word	0x00b4	; ????
    155a:	a0 02       	muls	r26, r16
    155c:	1e 03       	fmul	r17, r22
    155e:	65 01       	movw	r12, r10
    1560:	05 03       	mulsu	r16, r21
    1562:	ea 04       	cpc	r14, r10
    1564:	5a 04       	cpc	r5, r10
    1566:	7e 02       	muls	r23, r30
    1568:	2e 03       	fmul	r18, r22
    156a:	61 02       	muls	r22, r17
    156c:	f1 00       	.word	0x00f1	; ????
    156e:	5a 00       	.word	0x005a	; ????
    1570:	65 02       	muls	r22, r21
    1572:	e7 ff       	sbrs	r30, 7
    1574:	21 ff       	sbrs	r18, 1
    1576:	30 fe       	sbrs	r3, 0
    1578:	10 fe       	sbrs	r1, 0
    157a:	5d fd       	.word	0xfd5d	; ????
    157c:	c3 fb       	bst	r28, 3
    157e:	ff f9       	.word	0xf9ff	; ????
    1580:	8a fb       	.word	0xfb8a	; ????
    1582:	e1 fb       	bst	r30, 1
    1584:	f6 f8       	bld	r15, 6
    1586:	c4 f8       	bld	r12, 4
    1588:	41 fa       	bst	r4, 1
    158a:	57 f9       	bld	r21, 7
    158c:	cb f8       	.word	0xf8cb	; ????
    158e:	6b f7       	brvc	.-38     	; 0x156a <__stack+0xa6b>
    1590:	5f f8       	.word	0xf85f	; ????
    1592:	88 f9       	.word	0xf988	; ????
    1594:	44 f9       	bld	r20, 4
    1596:	f1 f7       	brne	.-4      	; 0x1594 <__stack+0xa95>
    1598:	7b fa       	.word	0xfa7b	; ????
    159a:	35 fc       	sbrc	r3, 5
    159c:	7d fb       	.word	0xfb7d	; ????
    159e:	f5 fa       	bst	r15, 5
    15a0:	77 fe       	sbrs	r7, 7
    15a2:	f9 fe       	.word	0xfef9	; ????
    15a4:	b9 fe       	.word	0xfeb9	; ????
    15a6:	51 00       	.word	0x0051	; ????
    15a8:	f7 01       	movw	r30, r14
    15aa:	93 01       	movw	r18, r6
    15ac:	80 01       	movw	r16, r0
    15ae:	41 01       	movw	r8, r2
    15b0:	00 02       	muls	r16, r16
    15b2:	9f 03       	fmulsu	r17, r23
    15b4:	a6 04       	cpc	r10, r6
    15b6:	c8 03       	fmulsu	r20, r16
    15b8:	25 04       	cpc	r2, r5
    15ba:	e8 04       	cpc	r14, r8
    15bc:	c2 05       	cpc	r28, r2
    15be:	b1 06       	cpc	r11, r17
    15c0:	e1 04       	cpc	r14, r1
    15c2:	8e 04       	cpc	r8, r14
    15c4:	20 06       	cpc	r2, r16
    15c6:	dc 05       	cpc	r29, r12
    15c8:	17 03       	mulsu	r17, r23
    15ca:	3f 02       	muls	r19, r31
    15cc:	dd 00       	.word	0x00dd	; ????
    15ce:	24 ff       	sbrs	r18, 4
    15d0:	31 ff       	sbrs	r19, 1
    15d2:	1a fe       	.word	0xfe1a	; ????
    15d4:	d5 fc       	sbrc	r13, 5
    15d6:	9c fd       	.word	0xfd9c	; ????
    15d8:	23 fe       	sbrs	r2, 3
    15da:	33 fe       	sbrs	r3, 3
    15dc:	71 fd       	sbrc	r23, 1
    15de:	05 fc       	sbrc	r0, 5
    15e0:	fc fb       	.word	0xfbfc	; ????
    15e2:	8f fe       	.word	0xfe8f	; ????
    15e4:	f4 fc       	sbrc	r15, 4
    15e6:	ae fa       	.word	0xfaae	; ????
    15e8:	cb f8       	.word	0xf8cb	; ????
    15ea:	bf f9       	.word	0xf9bf	; ????
    15ec:	36 fa       	bst	r3, 6
    15ee:	8c f6       	brge	.-94     	; 0x1592 <__stack+0xa93>
    15f0:	b9 f3       	breq	.-18     	; 0x15e0 <__stack+0xae1>
    15f2:	9d f4       	brhc	.+38     	; 0x161a <__stack+0xb1b>
    15f4:	a4 f3       	brlt	.-24     	; 0x15de <__stack+0xadf>
    15f6:	eb f2       	brvs	.-70     	; 0x15b2 <__stack+0xab3>
    15f8:	e9 f0       	breq	.+58     	; 0x1634 <__stack+0xb35>
    15fa:	f8 ef       	ldi	r31, 0xF8	; 248
    15fc:	ff ed       	ldi	r31, 0xDF	; 223
    15fe:	05 ec       	ldi	r16, 0xC5	; 197
    1600:	45 e9       	ldi	r20, 0x95	; 149
    1602:	1b ea       	ldi	r17, 0xAB	; 171
    1604:	be e7       	ldi	r27, 0x7E	; 126
    1606:	de e4       	ldi	r29, 0x4E	; 78
    1608:	3a e7       	ldi	r19, 0x7A	; 122
    160a:	11 f1       	breq	.+68     	; 0x1650 <__stack+0xb51>
    160c:	ef f5       	brid	.+122    	; 0x1688 <__stack+0xb89>
    160e:	bf f8       	.word	0xf8bf	; ????
    1610:	de fb       	.word	0xfbde	; ????
    1612:	71 00       	.word	0x0071	; ????
    1614:	60 06       	cpc	r6, r16
    1616:	28 0a       	sbc	r2, r24
    1618:	5f 0a       	sbc	r5, r31
    161a:	82 0c       	add	r8, r2
    161c:	21 0f       	add	r18, r17
    161e:	ba 10       	cpse	r11, r10
    1620:	01 12       	cpse	r0, r17
    1622:	a5 13       	cpse	r26, r21
    1624:	05 15       	cp	r16, r5
    1626:	97 16       	cp	r9, r23
    1628:	2f 17       	cp	r18, r31
    162a:	85 17       	cp	r24, r21
    162c:	79 17       	cp	r23, r25
    162e:	b4 15       	cp	r27, r4
    1630:	e6 13       	cpse	r30, r22
    1632:	79 11       	cpse	r23, r9
    1634:	57 0e       	add	r5, r23
    1636:	30 0b       	sbc	r19, r16
    1638:	d8 08       	sbc	r13, r8
    163a:	1b 04       	cpc	r1, r11
    163c:	b5 fe       	sbrs	r11, 5
    163e:	70 fa       	bst	r7, 0
    1640:	38 f7       	brcc	.-50     	; 0x1610 <__stack+0xb11>
    1642:	20 f3       	brcs	.-56     	; 0x160c <__stack+0xb0d>
    1644:	8d ee       	ldi	r24, 0xED	; 237
    1646:	ca e8       	ldi	r28, 0x8A	; 138
    1648:	94 e5       	ldi	r25, 0x54	; 84
    164a:	53 e1       	ldi	r21, 0x13	; 19
    164c:	c5 dc       	rcall	.-1654   	; 0xfd8 <__stack+0x4d9>
    164e:	0b d8       	rcall	.-4074   	; 0x666 <__LOCK_REGION_LENGTH__+0x266>
    1650:	68 d4       	rcall	.+2256   	; 0x1f22 <usb_config_ep+0x18>
    1652:	30 d7       	rcall	.+3680   	; 0x24b4 <usb_task_init>
    1654:	b9 e3       	ldi	r27, 0x39	; 57
    1656:	20 eb       	ldi	r18, 0xB0	; 176
    1658:	14 f1       	brlt	.+68     	; 0x169e <__stack+0xb9f>
    165a:	51 f7       	brne	.-44     	; 0x1630 <__stack+0xb31>
    165c:	f4 ff       	sbrs	r31, 4
    165e:	68 08       	sbc	r6, r8
    1660:	e0 0c       	add	r14, r0
    1662:	14 0e       	add	r1, r20
    1664:	a0 13       	cpse	r26, r16
    1666:	2e 19       	sub	r18, r14
    1668:	75 1b       	sub	r23, r21
    166a:	dc 1c       	adc	r13, r12
    166c:	7a 1e       	adc	r7, r26
    166e:	8d 20       	and	r8, r13
    1670:	d9 21       	and	r29, r9
    1672:	bf 20       	and	r11, r15
    1674:	08 1f       	adc	r16, r24
    1676:	5b 1e       	adc	r5, r27
    1678:	c8 1b       	sub	r28, r24
    167a:	5c 19       	sub	r21, r12
    167c:	fd 14       	cp	r15, r13
    167e:	bf 10       	cpse	r11, r15
    1680:	32 0e       	add	r3, r18
    1682:	f0 0a       	sbc	r15, r16
    1684:	b2 03       	fmuls	r19, r18
    1686:	20 fd       	sbrc	r18, 0
    1688:	0e f6       	brtc	.-126    	; 0x160c <__stack+0xb0d>
    168a:	39 f1       	breq	.+78     	; 0x16da <__stack+0xbdb>
    168c:	02 ea       	ldi	r16, 0xA2	; 162
    168e:	4a e3       	ldi	r20, 0x3A	; 58
    1690:	8a db       	rcall	.-2284   	; 0xda6 <__stack+0x2a7>
    1692:	85 d6       	rcall	.+3338   	; 0x239e <usb_process_request+0x2e8>
    1694:	bf ce       	rjmp	.-642    	; 0x1414 <__stack+0x915>
    1696:	6c c9       	rjmp	.-3368   	; 0x970 <__LOCK_REGION_LENGTH__+0x570>
    1698:	c3 c5       	rjmp	.+2950   	; 0x2220 <usb_process_request+0x16a>
    169a:	0e c3       	rjmp	.+1564   	; 0x1cb8 <__stack+0x11b9>
    169c:	88 c2       	rjmp	.+1296   	; 0x1bae <__stack+0x10af>
    169e:	f3 d2       	rcall	.+1510   	; 0x1c86 <__stack+0x1187>
    16a0:	27 e2       	ldi	r18, 0x27	; 39
    16a2:	4a e9       	ldi	r20, 0x9A	; 154
    16a4:	ea ef       	ldi	r30, 0xFA	; 250
    16a6:	65 fa       	bst	r6, 5
    16a8:	7e 05       	cpc	r23, r14
    16aa:	39 0d       	add	r19, r9
    16ac:	84 0d       	add	r24, r4
    16ae:	8d 10       	cpse	r8, r13
    16b0:	b3 19       	sub	r27, r3
    16b2:	bf 1e       	adc	r11, r31
    16b4:	0a 20       	and	r0, r10
    16b6:	1d 22       	and	r1, r29
    16b8:	de 23       	and	r29, r30
    16ba:	3d 27       	eor	r19, r29
    16bc:	d0 27       	eor	r29, r16
    16be:	fd 24       	eor	r15, r13
    16c0:	b4 24       	eor	r11, r4
    16c2:	47 24       	eor	r4, r7
    16c4:	d4 21       	and	r29, r4
    16c6:	20 1d       	adc	r18, r0
    16c8:	e0 17       	cp	r30, r16
    16ca:	8b 14       	cp	r8, r11
    16cc:	ac 13       	cpse	r26, r28
    16ce:	18 0f       	add	r17, r24
    16d0:	a9 07       	cpc	r26, r25
    16d2:	84 01       	movw	r16, r8
    16d4:	12 fd       	sbrc	r17, 2
    16d6:	17 f5       	brid	.+68     	; 0x171c <__stack+0xc1d>
    16d8:	e4 ed       	ldi	r30, 0xD4	; 212
    16da:	a0 e6       	ldi	r26, 0x60	; 96
    16dc:	3c e2       	ldi	r19, 0x2C	; 44
    16de:	38 db       	rcall	.-2448   	; 0xd50 <__stack+0x251>
    16e0:	c5 d3       	rcall	.+1930   	; 0x1e6c <__low_level_init+0xc>
    16e2:	2c ce       	rjmp	.-936    	; 0x133c <__stack+0x83d>
    16e4:	d9 cc       	rjmp	.-1614   	; 0x1098 <__stack+0x599>
    16e6:	d5 c8       	rjmp	.-3670   	; 0x892 <__LOCK_REGION_LENGTH__+0x492>
    16e8:	91 ce       	rjmp	.-734    	; 0x140c <__stack+0x90d>
    16ea:	7a e2       	ldi	r23, 0x2A	; 42
    16ec:	8f ec       	ldi	r24, 0xCF	; 207
    16ee:	79 f3       	breq	.-34     	; 0x16ce <__stack+0xbcf>
    16f0:	e4 fb       	bst	r30, 4
    16f2:	6c 03       	fmul	r22, r20
    16f4:	d4 0a       	sbc	r13, r20
    16f6:	46 0d       	add	r20, r6
    16f8:	de 0a       	sbc	r13, r30
    16fa:	b3 0d       	add	r27, r3
    16fc:	c7 14       	cp	r12, r7
    16fe:	ce 16       	cp	r12, r30
    1700:	d0 17       	cp	r29, r16
    1702:	62 19       	sub	r22, r2
    1704:	5e 1a       	sub	r5, r30
    1706:	30 1c       	adc	r3, r0
    1708:	e2 1c       	adc	r14, r2
    170a:	d6 1a       	sub	r13, r22
    170c:	4c 1c       	adc	r4, r12
    170e:	a2 1c       	adc	r10, r2
    1710:	6b 19       	sub	r22, r11
    1712:	6b 15       	cp	r22, r11
    1714:	f9 11       	cpse	r31, r9
    1716:	80 10       	cpse	r8, r0
    1718:	fa 10       	cpse	r15, r10
    171a:	be 0d       	add	r27, r14
    171c:	90 08       	sbc	r9, r0
    171e:	dc 06       	cpc	r13, r28
    1720:	89 02       	muls	r24, r25
    1722:	12 fb       	bst	r17, 2
    1724:	f0 f1       	brcs	.+124    	; 0x17a2 <__stack+0xca3>
    1726:	6e eb       	ldi	r22, 0xBE	; 190
    1728:	cc e4       	ldi	r28, 0x4C	; 76
    172a:	13 de       	rcall	.-986    	; 0x1352 <__stack+0x853>
    172c:	ce d7       	rcall	.+3996   	; 0x26ca <__vector_10+0x20c>
    172e:	03 d4       	rcall	.+2054   	; 0x1f36 <usb_init_device>
    1730:	da d0       	rcall	.+436    	; 0x18e6 <__stack+0xde7>
    1732:	bf cd       	rjmp	.-1154   	; 0x12b2 <__stack+0x7b3>
    1734:	8a d3       	rcall	.+1812   	; 0x1e4a <usb_dev_desc+0x9>
    1736:	64 df       	rcall	.-312    	; 0x1600 <__stack+0xb01>
    1738:	5e ec       	ldi	r21, 0xCE	; 206
    173a:	32 f2       	brmi	.-116    	; 0x16c8 <__stack+0xbc9>
    173c:	ab f7       	brvc	.-22     	; 0x1728 <__stack+0xc29>
    173e:	01 fb       	bst	r16, 1
    1740:	ec 00       	.word	0x00ec	; ????
    1742:	15 07       	cpc	r17, r21
    1744:	4c 06       	cpc	r4, r28
    1746:	9e 07       	cpc	r25, r30
    1748:	97 0b       	sbc	r25, r23
    174a:	3c 12       	cpse	r3, r28
    174c:	59 16       	cp	r5, r25
    174e:	f7 17       	cp	r31, r23
    1750:	45 17       	cp	r20, r21
    1752:	a5 18       	sub	r10, r5
    1754:	6b 1b       	sub	r22, r27
    1756:	8b 1b       	sub	r24, r27
    1758:	3f 1b       	sub	r19, r31
    175a:	f3 1a       	sub	r15, r19
    175c:	a8 19       	sub	r26, r8
    175e:	98 18       	sub	r9, r8
    1760:	32 17       	cp	r19, r18
    1762:	7f 14       	cp	r7, r15
    1764:	37 13       	cpse	r19, r23
    1766:	36 12       	cpse	r3, r22
    1768:	1c 0f       	add	r17, r28
    176a:	00 0b       	sbc	r16, r16
    176c:	29 07       	cpc	r18, r25
    176e:	55 02       	muls	r21, r21
    1770:	ca fd       	.word	0xfdca	; ????
    1772:	cc f3       	brlt	.-14     	; 0x1766 <__stack+0xc67>
    1774:	6f e8       	ldi	r22, 0x8F	; 143
    1776:	a5 df       	rcall	.-182    	; 0x16c2 <__stack+0xbc3>
    1778:	40 dc       	rcall	.-1920   	; 0xffa <__stack+0x4fb>
    177a:	7a d6       	rcall	.+3316   	; 0x2470 <usb_process_request+0x3ba>
    177c:	25 d0       	rcall	.+74     	; 0x17c8 <__stack+0xcc9>
    177e:	6f ca       	rjmp	.-2850   	; 0xc5e <__stack+0x15f>
    1780:	ca c7       	rjmp	.+3988   	; 0x2716 <audio_task_init+0x26>
    1782:	7e ce       	rjmp	.-772    	; 0x1480 <__stack+0x981>
    1784:	d9 de       	rcall	.-590    	; 0x1538 <__stack+0xa39>
    1786:	d3 e9       	ldi	r29, 0x93	; 147
    1788:	b4 ed       	ldi	r27, 0xD4	; 212
    178a:	4c f3       	brlt	.-46     	; 0x175e <__stack+0xc5f>
    178c:	09 fa       	.word	0xfa09	; ????
    178e:	7d 04       	cpc	r7, r13
    1790:	93 0b       	sbc	r25, r19
    1792:	a8 0f       	add	r26, r24
    1794:	20 10       	cpse	r2, r0
    1796:	a9 12       	cpse	r10, r25
    1798:	86 17       	cp	r24, r22
    179a:	cf 1a       	sub	r12, r31
    179c:	17 1d       	adc	r17, r7
    179e:	45 1a       	sub	r4, r21
    17a0:	a3 17       	cp	r26, r19
    17a2:	fc 17       	cp	r31, r28
    17a4:	1c 19       	sub	r17, r12
    17a6:	f2 17       	cp	r31, r18
    17a8:	f5 13       	cpse	r31, r21
    17aa:	5d 10       	cpse	r5, r13
    17ac:	fd 0c       	add	r15, r13
    17ae:	32 0c       	add	r3, r2
    17b0:	6e 0a       	sbc	r6, r30
    17b2:	29 08       	sbc	r2, r9
    17b4:	9d 03       	fmulsu	r17, r21
    17b6:	2b 00       	.word	0x002b	; ????
    17b8:	a6 ff       	sbrs	r26, 6
    17ba:	28 00       	.word	0x0028	; ????
    17bc:	1a fe       	.word	0xfe1a	; ????
    17be:	92 f7       	brpl	.-28     	; 0x17a4 <__stack+0xca5>
    17c0:	5d f0       	brhs	.+22     	; 0x17d8 <__stack+0xcd9>
    17c2:	28 ec       	ldi	r18, 0xC8	; 200
    17c4:	e4 e8       	ldi	r30, 0x84	; 132
    17c6:	51 e5       	ldi	r21, 0x51	; 81
    17c8:	42 df       	rcall	.-380    	; 0x164e <__stack+0xb4f>
    17ca:	bd da       	rcall	.-2694   	; 0xd46 <__stack+0x247>
    17cc:	27 d5       	rcall	.+2638   	; 0x221c <usb_process_request+0x166>
    17ce:	b7 d4       	rcall	.+2414   	; 0x213e <usb_process_request+0x88>
    17d0:	f9 dd       	rcall	.-1038   	; 0x13c4 <__stack+0x8c5>
    17d2:	b5 e4       	ldi	r27, 0x45	; 69
    17d4:	c7 ea       	ldi	r28, 0xA7	; 167
    17d6:	30 f0       	brcs	.+12     	; 0x17e4 <__stack+0xce5>
    17d8:	d4 f6       	brge	.-76     	; 0x178e <__stack+0xc8f>
    17da:	c0 fb       	bst	r28, 0
    17dc:	e7 04       	cpc	r14, r7
    17de:	7c 0b       	sbc	r23, r28
    17e0:	a7 0d       	add	r26, r7
    17e2:	e7 0f       	add	r30, r23
    17e4:	46 12       	cpse	r4, r22
    17e6:	f1 15       	cp	r31, r1
    17e8:	29 18       	sub	r2, r9
    17ea:	d5 17       	cp	r29, r21
    17ec:	a0 16       	cp	r10, r16
    17ee:	d8 15       	cp	r29, r8
    17f0:	bd 16       	cp	r11, r29
    17f2:	85 16       	cp	r8, r21
    17f4:	ef 14       	cp	r14, r15
    17f6:	90 11       	cpse	r25, r0
    17f8:	dc 0d       	add	r29, r12
    17fa:	cd 0b       	sbc	r28, r29
    17fc:	c1 0a       	sbc	r12, r17
    17fe:	c0 07       	cpc	r28, r16
    1800:	0e 04       	cpc	r0, r14
    1802:	dd 00       	.word	0x00dd	; ????
    1804:	2f 00       	.word	0x002f	; ????
    1806:	7f ff       	.word	0xff7f	; ????
    1808:	b4 fe       	sbrs	r11, 4
    180a:	74 fc       	sbrc	r7, 4
    180c:	7b fa       	.word	0xfa7b	; ????
    180e:	47 f7       	brid	.-48     	; 0x17e0 <__stack+0xce1>
    1810:	b5 f2       	brhs	.-84     	; 0x17be <__stack+0xcbf>
    1812:	79 eb       	ldi	r23, 0xB9	; 185
    1814:	4c e6       	ldi	r20, 0x6C	; 108
    1816:	ad de       	rcall	.-678    	; 0x1572 <__stack+0xa73>
    1818:	d8 d6       	rcall	.+3504   	; 0x25ca <__vector_10+0x10c>
    181a:	01 d1       	rcall	.+514    	; 0x1a1e <__stack+0xf1f>
    181c:	2e cf       	rjmp	.-420    	; 0x167a <__stack+0xb7b>
    181e:	fe d1       	rcall	.+1020   	; 0x1c1c <__stack+0x111d>
    1820:	14 d8       	rcall	.-4056   	; 0x84a <__LOCK_REGION_LENGTH__+0x44a>
    1822:	56 df       	rcall	.-340    	; 0x16d0 <__stack+0xbd1>
    1824:	ef e3       	ldi	r30, 0x3F	; 63
    1826:	94 eb       	ldi	r25, 0xB4	; 180
    1828:	95 f3       	brhs	.-28     	; 0x180e <__stack+0xd0f>
    182a:	c2 fc       	sbrc	r12, 2
    182c:	fa 02       	muls	r31, r26
    182e:	a3 0a       	sbc	r10, r19
    1830:	7e 10       	cpse	r7, r14
    1832:	78 14       	cp	r7, r8
    1834:	73 17       	cp	r23, r19
    1836:	b5 18       	sub	r11, r5
    1838:	1b 1a       	sub	r1, r27
    183a:	dc 1a       	sub	r13, r28
    183c:	18 1b       	sub	r17, r24
    183e:	21 1b       	sub	r18, r17
    1840:	31 1b       	sub	r19, r17
    1842:	28 1b       	sub	r18, r24
    1844:	57 1a       	sub	r5, r23
    1846:	81 19       	sub	r24, r1
    1848:	8e 17       	cp	r24, r30
    184a:	18 16       	cp	r1, r24
    184c:	7f 15       	cp	r23, r15
    184e:	45 15       	cp	r20, r5
    1850:	45 15       	cp	r20, r5
    1852:	32 15       	cp	r19, r2
    1854:	03 14       	cp	r0, r3
    1856:	7a 12       	cpse	r7, r26
    1858:	f3 0f       	add	r31, r19
    185a:	5d 0d       	add	r21, r13
    185c:	3a 0b       	sbc	r19, r26
    185e:	7c 09       	sbc	r23, r12
    1860:	c2 05       	cpc	r28, r2
    1862:	b6 ff       	sbrs	r27, 6
    1864:	63 f7       	brvc	.-40     	; 0x183e <__stack+0xd3f>
    1866:	bc f0       	brlt	.+46     	; 0x1896 <__stack+0xd97>
    1868:	56 e6       	ldi	r21, 0x66	; 102
    186a:	ea dc       	rcall	.-1580   	; 0x1240 <__stack+0x741>
    186c:	82 d8       	rcall	.-3836   	; 0x972 <__LOCK_REGION_LENGTH__+0x572>
    186e:	00 d8       	rcall	.-4096   	; 0x870 <__LOCK_REGION_LENGTH__+0x470>
    1870:	84 d6       	rcall	.+3336   	; 0x257a <__vector_10+0xbc>
    1872:	ac d4       	rcall	.+2392   	; 0x21cc <usb_process_request+0x116>
    1874:	15 d6       	rcall	.+3114   	; 0x24a0 <usb_process_request+0x3ea>
    1876:	fe d7       	rcall	.+4092   	; 0x2874 <audio_task+0x5a>
    1878:	95 dd       	rcall	.-1238   	; 0x13a4 <__stack+0x8a5>
    187a:	8f e8       	ldi	r24, 0x8F	; 143
    187c:	73 f4       	brvc	.+28     	; 0x189a <__stack+0xd9b>
    187e:	27 fc       	sbrc	r2, 7
    1880:	24 08       	sbc	r2, r4
    1882:	14 13       	cpse	r17, r20
    1884:	c8 1c       	adc	r12, r8
    1886:	04 25       	eor	r16, r4
    1888:	ad 28       	or	r10, r13
    188a:	11 2c       	mov	r1, r1
    188c:	d8 2d       	mov	r29, r8
    188e:	28 2e       	mov	r2, r24
    1890:	0e 2e       	mov	r0, r30
    1892:	6e 2d       	mov	r22, r14
    1894:	de 2a       	or	r13, r30
    1896:	5f 27       	eor	r21, r31
    1898:	a6 24       	eor	r10, r6
    189a:	f5 1f       	adc	r31, r21
    189c:	27 1b       	sub	r18, r23
    189e:	58 16       	cp	r5, r24
    18a0:	05 13       	cpse	r16, r21
    18a2:	3a 0e       	add	r3, r26
    18a4:	e5 09       	sbc	r30, r5
    18a6:	06 06       	cpc	r0, r22
    18a8:	94 03       	fmuls	r17, r20
    18aa:	52 00       	.word	0x0052	; ????
    18ac:	81 fc       	sbrc	r8, 1
    18ae:	46 f8       	bld	r4, 6
    18b0:	34 f5       	brge	.+76     	; 0x18fe <__stack+0xdff>
    18b2:	f0 ee       	ldi	r31, 0xE0	; 224
    18b4:	67 e6       	ldi	r22, 0x67	; 103
    18b6:	a0 db       	rcall	.-2240   	; 0xff8 <__stack+0x4f9>
    18b8:	c4 d3       	rcall	.+1928   	; 0x2042 <usb_start_device+0x3e>
    18ba:	0d c9       	rjmp	.-3558   	; 0xad6 <__LOCK_REGION_LENGTH__+0x6d6>
    18bc:	43 c6       	rjmp	.+3206   	; 0x2544 <__vector_10+0x86>
    18be:	3a c7       	rjmp	.+3700   	; 0x2734 <audio_task_init+0x44>
    18c0:	7f c7       	rjmp	.+3838   	; 0x27c0 <audio_task_init+0xd0>
    18c2:	46 c8       	rjmp	.-3956   	; 0x950 <__LOCK_REGION_LENGTH__+0x550>
    18c4:	f3 cc       	rjmp	.-1562   	; 0x12ac <__stack+0x7ad>
    18c6:	f4 d2       	rcall	.+1512   	; 0x1eb0 <flash_read_sig+0x8>
    18c8:	bf d9       	rcall	.-3202   	; 0xc48 <__stack+0x149>
    18ca:	e7 e7       	ldi	r30, 0x77	; 119
    18cc:	61 f5       	brne	.+88     	; 0x1926 <__stack+0xe27>
    18ce:	53 01       	movw	r10, r6
    18d0:	dc 09       	sbc	r29, r12
    18d2:	0a 16       	cp	r0, r26
    18d4:	c9 20       	and	r12, r9
    18d6:	62 2a       	or	r6, r18
    18d8:	23 30       	cpi	r18, 0x03	; 3
    18da:	bc 31       	cpi	r27, 0x1C	; 28
    18dc:	5e 32       	cpi	r21, 0x2E	; 46
    18de:	c4 31       	cpi	r28, 0x14	; 20
    18e0:	a5 2f       	mov	r26, r21
    18e2:	06 2e       	mov	r0, r22
    18e4:	b0 2a       	or	r11, r16
    18e6:	7d 26       	eor	r7, r29
    18e8:	f0 21       	and	r31, r0
    18ea:	23 1f       	adc	r18, r19
    18ec:	c9 1b       	sub	r28, r25
    18ee:	86 18       	sub	r8, r6
    18f0:	ee 14       	cp	r14, r14
    18f2:	50 12       	cpse	r5, r16
    18f4:	5b 0e       	add	r5, r27
    18f6:	0c 0b       	sbc	r16, r28
    18f8:	75 08       	sbc	r7, r5
    18fa:	de 06       	cpc	r13, r30
    18fc:	38 04       	cpc	r3, r8
    18fe:	84 00       	.word	0x0084	; ????
    1900:	e4 fb       	bst	r30, 4
    1902:	64 f7       	brge	.-40     	; 0x18dc <__stack+0xddd>
    1904:	65 ee       	ldi	r22, 0xE5	; 229
    1906:	41 e4       	ldi	r20, 0x41	; 65
    1908:	2d d9       	rcall	.-3494   	; 0xb64 <__stack+0x65>
    190a:	41 d2       	rcall	.+1154   	; 0x1d8e <usb_conf_desc+0xb>
    190c:	f2 ce       	rjmp	.-540    	; 0x16f2 <__stack+0xbf3>
    190e:	c6 cf       	rjmp	.-116    	; 0x189c <__stack+0xd9d>
    1910:	6d cf       	rjmp	.-294    	; 0x17ec <__stack+0xced>
    1912:	0d d0       	rcall	.+26     	; 0x192e <__stack+0xe2f>
    1914:	b0 d4       	rcall	.+2400   	; 0x2276 <usb_process_request+0x1c0>
    1916:	ca da       	rcall	.-2668   	; 0xeac <__stack+0x3ad>
    1918:	de e5       	ldi	r29, 0x5E	; 94
    191a:	50 ef       	ldi	r21, 0xF0	; 240
    191c:	95 fc       	sbrc	r9, 5
    191e:	3e 09       	sbc	r19, r14
    1920:	fd 15       	cp	r31, r13
    1922:	78 21       	and	r23, r8
    1924:	cb 28       	or	r12, r11
    1926:	22 32       	cpi	r18, 0x22	; 34
    1928:	e7 37       	cpi	r30, 0x77	; 119
    192a:	c8 3a       	cpi	r28, 0xA8	; 168
    192c:	4d 3b       	cpi	r20, 0xBD	; 189
    192e:	a1 3a       	cpi	r26, 0xA1	; 161
    1930:	45 38       	cpi	r20, 0x85	; 133
    1932:	ea 33       	cpi	r30, 0x3A	; 58
    1934:	13 30       	cpi	r17, 0x03	; 3
    1936:	61 29       	or	r22, r1
    1938:	8b 21       	and	r24, r11
    193a:	f7 19       	sub	r31, r7
    193c:	06 15       	cp	r16, r6
    193e:	bb 0d       	add	r27, r11
    1940:	fa 06       	cpc	r15, r26
    1942:	a4 00       	.word	0x00a4	; ????
    1944:	85 fc       	sbrc	r8, 5
    1946:	88 f7       	brcc	.-30     	; 0x192a <__stack+0xe2b>
    1948:	6d f3       	brhs	.-38     	; 0x1924 <__stack+0xe25>
    194a:	78 f0       	brcs	.+30     	; 0x196a <__stack+0xe6b>
    194c:	e9 ee       	ldi	r30, 0xE9	; 233
    194e:	76 ec       	ldi	r23, 0xC6	; 198
    1950:	cc e9       	ldi	r28, 0x9C	; 156
    1952:	01 e5       	ldi	r16, 0x51	; 81
    1954:	b4 e0       	ldi	r27, 0x04	; 4
    1956:	92 d9       	rcall	.-3292   	; 0xc7c <__stack+0x17d>
    1958:	cb d1       	rcall	.+918    	; 0x1cf0 <__stack+0x11f1>
    195a:	c5 cb       	rjmp	.-2166   	; 0x10e6 <__stack+0x5e7>
    195c:	c0 cc       	rjmp	.-1664   	; 0x12de <__stack+0x7df>
    195e:	88 d0       	rcall	.+272    	; 0x1a70 <__stack+0xf71>
    1960:	a7 d2       	rcall	.+1358   	; 0x1eb0 <flash_read_sig+0x8>
    1962:	58 d6       	rcall	.+3248   	; 0x2614 <__vector_10+0x156>
    1964:	e3 da       	rcall	.-2618   	; 0xf2c <__stack+0x42d>
    1966:	e7 e1       	ldi	r30, 0x17	; 23
    1968:	66 ed       	ldi	r22, 0xD6	; 214
    196a:	b5 fb       	bst	r27, 5
    196c:	18 04       	cpc	r1, r8
    196e:	1d 10       	cpse	r1, r13
    1970:	e5 1b       	sub	r30, r21
    1972:	0c 26       	eor	r0, r28
    1974:	a5 2f       	mov	r26, r21
    1976:	d6 34       	cpi	r29, 0x46	; 70
    1978:	28 39       	cpi	r18, 0x98	; 152
    197a:	e1 3a       	cpi	r30, 0xA1	; 161
    197c:	13 3a       	cpi	r17, 0xA3	; 163
    197e:	8d 38       	cpi	r24, 0x8D	; 141
    1980:	62 35       	cpi	r22, 0x52	; 82
    1982:	88 30       	cpi	r24, 0x08	; 8
    1984:	08 2a       	or	r0, r24
    1986:	57 25       	eor	r21, r7
    1988:	af 1d       	adc	r26, r15
    198a:	ef 15       	cp	r30, r15
    198c:	0f 0f       	add	r16, r31
    198e:	8a 0a       	sbc	r8, r26
    1990:	7b 04       	cpc	r7, r11
    1992:	e6 fe       	sbrs	r14, 6
    1994:	da f9       	.word	0xf9da	; ????
    1996:	14 f7       	brge	.-60     	; 0x195c <__stack+0xe5d>
    1998:	ca f3       	brmi	.-14     	; 0x198c <__stack+0xe8d>
    199a:	6e f1       	brts	.+90     	; 0x19f6 <__stack+0xef7>
    199c:	0b f0       	brvs	.+2      	; 0x19a0 <__stack+0xea1>
    199e:	07 ef       	ldi	r16, 0xF7	; 247
    19a0:	93 ec       	ldi	r25, 0xC3	; 195
    19a2:	d8 e8       	ldi	r29, 0x88	; 136
    19a4:	3c e3       	ldi	r19, 0x3C	; 60
    19a6:	b1 de       	rcall	.-670    	; 0x170a <__stack+0xc0b>
    19a8:	a8 d7       	rcall	.+3920   	; 0x28fa <audio_task+0xe0>
    19aa:	f8 d0       	rcall	.+496    	; 0x1b9c <__stack+0x109d>
    19ac:	87 d2       	rcall	.+1294   	; 0x1ebc <flash_read_fuse+0x4>
    19ae:	7e d5       	rcall	.+2812   	; 0x24ac <usb_process_request+0x3f6>
    19b0:	72 d8       	rcall	.-3868   	; 0xa96 <__LOCK_REGION_LENGTH__+0x696>
    19b2:	a4 da       	rcall	.-2744   	; 0xefc <__stack+0x3fd>
    19b4:	e9 e0       	ldi	r30, 0x09	; 9
    19b6:	30 e5       	ldi	r19, 0x50	; 80
    19b8:	3b ee       	ldi	r19, 0xEB	; 235
    19ba:	06 fb       	bst	r16, 6
    19bc:	60 05       	cpc	r22, r0
    19be:	40 0b       	sbc	r20, r16
    19c0:	6a 14       	cp	r6, r10
    19c2:	78 1c       	adc	r7, r8
    19c4:	d7 23       	and	r29, r23
    19c6:	83 2a       	or	r8, r19
    19c8:	56 2c       	mov	r5, r6
    19ca:	9c 2c       	mov	r9, r12
    19cc:	4c 2b       	or	r20, r28
    19ce:	5c 28       	or	r5, r12
    19d0:	aa 26       	eor	r10, r26
    19d2:	4c 24       	eor	r4, r12
    19d4:	64 20       	and	r6, r4
    19d6:	8c 1b       	sub	r24, r28
    19d8:	42 18       	sub	r4, r2
    19da:	ce 12       	cpse	r12, r30
    19dc:	bc 0e       	add	r11, r28
    19de:	6c 0b       	sbc	r22, r28
    19e0:	66 09       	sbc	r22, r6
    19e2:	0e 06       	cpc	r0, r30
    19e4:	3d 03       	fmul	r19, r21
    19e6:	26 01       	movw	r4, r12
    19e8:	57 00       	.word	0x0057	; ????
    19ea:	95 ff       	sbrs	r25, 5
    19ec:	15 ff       	sbrs	r17, 5
    19ee:	0e fe       	.word	0xfe0e	; ????
    19f0:	d2 fc       	sbrc	r13, 2
    19f2:	0e fa       	.word	0xfa0e	; ????
    19f4:	cb f4       	brvc	.+50     	; 0x1a28 <__stack+0xf29>
    19f6:	c9 ec       	ldi	r28, 0xC9	; 201
    19f8:	ca e6       	ldi	r28, 0x6A	; 106
    19fa:	5c dc       	rcall	.-1864   	; 0x12b4 <__stack+0x7b5>
    19fc:	2c d4       	rcall	.+2136   	; 0x2256 <usb_process_request+0x1a0>
    19fe:	90 d3       	rcall	.+1824   	; 0x2120 <usb_process_request+0x6a>
    1a00:	a2 d3       	rcall	.+1860   	; 0x2146 <usb_process_request+0x90>
    1a02:	c0 d1       	rcall	.+896    	; 0x1d84 <usb_conf_desc+0x1>
    1a04:	c1 d2       	rcall	.+1410   	; 0x1f88 <init_adc+0x38>
    1a06:	08 d7       	rcall	.+3600   	; 0x2818 <audio_task_init+0x128>
    1a08:	22 da       	rcall	.-3004   	; 0xe4e <__stack+0x34f>
    1a0a:	3b e3       	ldi	r19, 0x3B	; 59
    1a0c:	21 ee       	ldi	r18, 0xE1	; 225
    1a0e:	65 f6       	brhc	.-104    	; 0x19a8 <__stack+0xea9>
    1a10:	97 fc       	sbrc	r9, 7
    1a12:	ea 06       	cpc	r14, r26
    1a14:	dd 0f       	add	r29, r29
    1a16:	15 1a       	sub	r1, r21
    1a18:	37 22       	and	r3, r23
    1a1a:	51 24       	eor	r5, r1
    1a1c:	ce 26       	eor	r12, r30
    1a1e:	e3 27       	eor	r30, r19
    1a20:	b1 26       	eor	r11, r17
    1a22:	56 26       	eor	r5, r22
    1a24:	2a 25       	eor	r18, r10
    1a26:	4e 21       	and	r20, r14
    1a28:	a3 1d       	adc	r26, r3
    1a2a:	63 1b       	sub	r22, r19
    1a2c:	c7 16       	cp	r12, r23
    1a2e:	34 13       	cpse	r19, r20
    1a30:	58 10       	cpse	r5, r8
    1a32:	e6 0d       	add	r30, r6
    1a34:	7c 0a       	sbc	r7, r28
    1a36:	b5 08       	sbc	r11, r5
    1a38:	df 06       	cpc	r13, r31
    1a3a:	2a 06       	cpc	r2, r26
    1a3c:	1c 06       	cpc	r1, r28
    1a3e:	9d 05       	cpc	r25, r13
    1a40:	49 04       	cpc	r4, r9
    1a42:	0d 03       	fmul	r16, r21
    1a44:	8b fe       	.word	0xfe8b	; ????
    1a46:	94 f7       	brge	.-28     	; 0x1a2c <__stack+0xf2d>
    1a48:	9f ee       	ldi	r25, 0xEF	; 239
    1a4a:	5c e7       	ldi	r21, 0x7C	; 124
    1a4c:	d1 db       	rcall	.-2142   	; 0x11f0 <__stack+0x6f1>
    1a4e:	47 d4       	rcall	.+2190   	; 0x22de <usb_process_request+0x228>
    1a50:	bb d1       	rcall	.+886    	; 0x1dc8 <usb_conf_desc+0x45>
    1a52:	46 d0       	rcall	.+140    	; 0x1ae0 <__stack+0xfe1>
    1a54:	cd cc       	rjmp	.-1638   	; 0x13f0 <__stack+0x8f1>
    1a56:	b4 cd       	rjmp	.-1176   	; 0x15c0 <__stack+0xac1>
    1a58:	72 d1       	rcall	.+740    	; 0x1d3e <__stack+0x123f>
    1a5a:	34 d5       	rcall	.+2664   	; 0x24c4 <__vector_10+0x6>
    1a5c:	71 de       	rcall	.-798    	; 0x1740 <__stack+0xc41>
    1a5e:	b8 e8       	ldi	r27, 0x88	; 136
    1a60:	b5 f1       	brhs	.+108    	; 0x1ace <__stack+0xfcf>
    1a62:	d9 fc       	.word	0xfcd9	; ????
    1a64:	71 04       	cpc	r7, r1
    1a66:	ee 0e       	add	r14, r30
    1a68:	63 1a       	sub	r6, r19
    1a6a:	b5 22       	and	r11, r21
    1a6c:	74 25       	eor	r23, r4
    1a6e:	1c 29       	or	r17, r12
    1a70:	96 2b       	or	r25, r22
    1a72:	27 2c       	mov	r2, r7
    1a74:	cd 2c       	mov	r12, r13
    1a76:	56 2c       	mov	r5, r6
    1a78:	57 29       	or	r21, r7
    1a7a:	65 26       	eor	r6, r21
    1a7c:	eb 23       	and	r30, r27
    1a7e:	4e 1f       	adc	r20, r30
    1a80:	8a 1b       	sub	r24, r26
    1a82:	b6 17       	cp	r27, r22
    1a84:	78 14       	cp	r7, r8
    1a86:	b7 10       	cpse	r11, r7
    1a88:	20 0e       	add	r2, r16
    1a8a:	08 0b       	sbc	r16, r24
    1a8c:	99 09       	sbc	r25, r9
    1a8e:	8a 07       	cpc	r24, r26
    1a90:	f8 04       	cpc	r15, r8
    1a92:	16 02       	muls	r17, r22
    1a94:	bf ff       	.word	0xffbf	; ????
    1a96:	e9 fa       	.word	0xfae9	; ????
    1a98:	55 f3       	brhs	.-44     	; 0x1a6e <__stack+0xf6f>
    1a9a:	0d ea       	ldi	r16, 0xAD	; 173
    1a9c:	09 e3       	ldi	r16, 0x39	; 57
    1a9e:	cb d7       	rcall	.+3990   	; 0x2a36 <__vector_21+0xe8>
    1aa0:	77 d0       	rcall	.+238    	; 0x1b90 <__stack+0x1091>
    1aa2:	f4 ce       	rjmp	.-536    	; 0x188c <__stack+0xd8d>
    1aa4:	65 ce       	rjmp	.-822    	; 0x1770 <__stack+0xc71>
    1aa6:	96 cd       	rjmp	.-1236   	; 0x15d4 <__stack+0xad5>
    1aa8:	d9 cf       	rjmp	.-78     	; 0x1a5c <__stack+0xf5d>
    1aaa:	5b d5       	rcall	.+2742   	; 0x2562 <__vector_10+0xa4>
    1aac:	6e da       	rcall	.-2852   	; 0xf8a <__stack+0x48b>
    1aae:	54 e4       	ldi	r21, 0x44	; 68
    1ab0:	2f ef       	ldi	r18, 0xFF	; 255
    1ab2:	4b f9       	.word	0xf94b	; ????
    1ab4:	c5 03       	fmuls	r20, r21
    1ab6:	01 0b       	sbc	r16, r17
    1ab8:	cc 15       	cp	r28, r12
    1aba:	32 20       	and	r3, r2
    1abc:	24 28       	or	r2, r4
    1abe:	37 2b       	or	r19, r23
    1ac0:	79 2d       	mov	r23, r9
    1ac2:	42 2e       	mov	r4, r18
    1ac4:	99 2d       	mov	r25, r9
    1ac6:	bf 2c       	mov	r11, r15
    1ac8:	65 2a       	or	r6, r21
    1aca:	cf 26       	eor	r12, r31
    1acc:	85 22       	and	r8, r21
    1ace:	2a 1f       	adc	r18, r26
    1ad0:	ef 19       	sub	r30, r15
    1ad2:	b1 14       	cp	r11, r1
    1ad4:	ad 0f       	add	r26, r29
    1ad6:	4d 0c       	add	r4, r13
    1ad8:	8c 07       	cpc	r24, r28
    1ada:	eb 03       	fmulsu	r22, r19
    1adc:	60 01       	movw	r12, r0
    1ade:	1d 00       	.word	0x001d	; ????
    1ae0:	88 fe       	.word	0xfe88	; ????
    1ae2:	47 fd       	sbrc	r20, 7
    1ae4:	df fb       	.word	0xfbdf	; ????
    1ae6:	a3 fa       	bst	r10, 3
    1ae8:	1d f8       	.word	0xf81d	; ????
    1aea:	91 f3       	breq	.-28     	; 0x1ad0 <__stack+0xfd1>
    1aec:	d2 ec       	ldi	r29, 0xC2	; 194
    1aee:	8e e7       	ldi	r24, 0x7E	; 126
    1af0:	20 de       	rcall	.-960    	; 0x1732 <__stack+0xc33>
    1af2:	7b d6       	rcall	.+3318   	; 0x27ea <audio_task_init+0xfa>
    1af4:	60 d3       	rcall	.+1728   	; 0x21b6 <usb_process_request+0x100>
    1af6:	0f d2       	rcall	.+1054   	; 0x1f16 <usb_config_ep+0xc>
    1af8:	86 d0       	rcall	.+268    	; 0x1c06 <__stack+0x1107>
    1afa:	e9 d0       	rcall	.+466    	; 0x1cce <__stack+0x11cf>
    1afc:	fa d3       	rcall	.+2036   	; 0x22f2 <usb_process_request+0x23c>
    1afe:	14 d7       	rcall	.+3624   	; 0x2928 <Get_adc_ext_val+0x28>
    1b00:	8b dd       	rcall	.-1258   	; 0x1618 <__stack+0xb19>
    1b02:	84 e5       	ldi	r24, 0x54	; 84
    1b04:	96 ed       	ldi	r25, 0xD6	; 214
    1b06:	02 f6       	brpl	.-128    	; 0x1a88 <__stack+0xf89>
    1b08:	ec fb       	.word	0xfbec	; ????
    1b0a:	b6 04       	cpc	r11, r6
    1b0c:	d9 0c       	add	r13, r9
    1b0e:	76 13       	cpse	r23, r22
    1b10:	64 16       	cp	r6, r20
    1b12:	0e 19       	sub	r16, r14
    1b14:	dc 1a       	sub	r13, r28
    1b16:	7a 1b       	sub	r23, r26
    1b18:	5a 1b       	sub	r21, r26
    1b1a:	be 1a       	sub	r11, r30
    1b1c:	bd 19       	sub	r27, r13
    1b1e:	d5 18       	sub	r13, r5
    1b20:	20 18       	sub	r2, r0
    1b22:	3f 17       	cp	r19, r31
    1b24:	66 16       	cp	r6, r22
    1b26:	e0 15       	cp	r30, r0
    1b28:	ae 15       	cp	r26, r14
    1b2a:	bb 15       	cp	r27, r11
    1b2c:	81 16       	cp	r8, r17
    1b2e:	1b 18       	sub	r1, r11
    1b30:	dc 18       	sub	r13, r12
    1b32:	88 19       	sub	r24, r8
    1b34:	a1 19       	sub	r26, r1
    1b36:	64 19       	sub	r22, r4
    1b38:	88 18       	sub	r8, r8
    1b3a:	5b 15       	cp	r21, r11
    1b3c:	de 0f       	add	r29, r30
    1b3e:	ce 06       	cpc	r12, r30
    1b40:	b3 ff       	sbrs	r27, 3
    1b42:	12 f4       	brpl	.+4      	; 0x1b48 <__stack+0x1049>
    1b44:	de e7       	ldi	r29, 0x7E	; 126
    1b46:	ee de       	rcall	.-548    	; 0x1924 <__stack+0xe25>
    1b48:	8e da       	rcall	.-2788   	; 0x1066 <__stack+0x567>
    1b4a:	da d4       	rcall	.+2484   	; 0x2500 <__vector_10+0x42>
    1b4c:	4e d2       	rcall	.+1180   	; 0x1fea <usb_device_task_init+0x6>
    1b4e:	30 d3       	rcall	.+1632   	; 0x21b0 <usb_process_request+0xfa>
    1b50:	8f d4       	rcall	.+2334   	; 0x2470 <usb_process_request+0x3ba>
    1b52:	50 d9       	rcall	.-3424   	; 0xdf4 <__stack+0x2f5>
    1b54:	da df       	rcall	.-76     	; 0x1b0a <__stack+0x100b>
    1b56:	8f e7       	ldi	r24, 0x7F	; 127
    1b58:	12 f1       	brmi	.+68     	; 0x1b9e <__stack+0x109f>
    1b5a:	e7 f7       	brid	.-8      	; 0x1b54 <__stack+0x1055>
    1b5c:	45 02       	muls	r20, r21
    1b5e:	5d 0c       	add	r5, r13
    1b60:	d2 14       	cp	r13, r2
    1b62:	25 19       	sub	r18, r5
    1b64:	c3 1d       	adc	r28, r3
    1b66:	3b 20       	and	r3, r11
    1b68:	06 21       	and	r16, r6
    1b6a:	fb 20       	and	r15, r11
    1b6c:	03 20       	and	r0, r3
    1b6e:	86 1e       	adc	r8, r22
    1b70:	6d 1c       	adc	r6, r13
    1b72:	ef 1a       	sub	r14, r31
    1b74:	27 18       	sub	r2, r7
    1b76:	9e 15       	cp	r25, r14
    1b78:	0a 13       	cpse	r16, r26
    1b7a:	42 11       	cpse	r20, r2
    1b7c:	1a 0f       	add	r17, r26
    1b7e:	55 0d       	add	r21, r5
    1b80:	5d 0c       	add	r5, r13
    1b82:	e0 0b       	sbc	r30, r16
    1b84:	55 0b       	sbc	r21, r21
    1b86:	5f 0a       	sbc	r5, r31
    1b88:	95 09       	sbc	r25, r5
    1b8a:	b8 08       	sbc	r11, r8
    1b8c:	07 06       	cpc	r0, r23
    1b8e:	26 02       	muls	r18, r22
    1b90:	d9 fb       	.word	0xfbd9	; ????
    1b92:	9e f6       	brtc	.-90     	; 0x1b3a <__stack+0x103b>
    1b94:	4c ee       	ldi	r20, 0xEC	; 236
    1b96:	c5 e4       	ldi	r28, 0x45	; 69
    1b98:	f9 db       	rcall	.-2062   	; 0x138c <__stack+0x88d>
    1b9a:	2c d8       	rcall	.-4008   	; 0xbf4 <__stack+0xf5>
    1b9c:	5a d3       	rcall	.+1716   	; 0x2252 <usb_process_request+0x19c>
    1b9e:	bc d0       	rcall	.+376    	; 0x1d18 <__stack+0x1219>
    1ba0:	e9 d1       	rcall	.+978    	; 0x1f74 <init_adc+0x24>
    1ba2:	96 d4       	rcall	.+2348   	; 0x24d0 <__vector_10+0x12>
    1ba4:	75 d7       	rcall	.+3818   	; 0x2a90 <__vector_21+0x142>
    1ba6:	d4 dd       	rcall	.-1112   	; 0x1750 <__stack+0xc51>
    1ba8:	32 e5       	ldi	r19, 0x52	; 82
    1baa:	9d ed       	ldi	r25, 0xDD	; 221
    1bac:	e6 f3       	brts	.-8      	; 0x1ba6 <__stack+0x10a7>
    1bae:	73 fd       	sbrc	r23, 3
    1bb0:	b5 06       	cpc	r11, r21
    1bb2:	95 0f       	add	r25, r21
    1bb4:	67 14       	cp	r6, r7
    1bb6:	4f 1a       	sub	r4, r31
    1bb8:	57 1e       	adc	r5, r23
    1bba:	21 20       	and	r2, r1
    1bbc:	94 20       	and	r9, r4
    1bbe:	56 20       	and	r5, r6
    1bc0:	f7 1e       	adc	r15, r23
    1bc2:	92 1d       	adc	r25, r2
    1bc4:	4d 1c       	adc	r4, r13
    1bc6:	4a 1a       	sub	r4, r26
    1bc8:	c9 17       	cp	r28, r25
    1bca:	51 15       	cp	r21, r1
    1bcc:	87 13       	cpse	r24, r23
    1bce:	25 11       	cpse	r18, r5
    1bd0:	4a 0f       	add	r20, r26
    1bd2:	8c 0d       	add	r24, r12
    1bd4:	e9 0c       	add	r14, r9
    1bd6:	33 0c       	add	r3, r3
    1bd8:	99 0b       	sbc	r25, r25
    1bda:	bb 0a       	sbc	r11, r27
    1bdc:	35 0a       	sbc	r3, r21
    1bde:	d1 08       	sbc	r13, r1
    1be0:	c1 06       	cpc	r12, r17
    1be2:	15 03       	mulsu	r17, r21
    1be4:	a2 ff       	sbrs	r26, 2
    1be6:	3e f9       	.word	0xf93e	; ????
    1be8:	97 f1       	brie	.+100    	; 0x1c4e <__stack+0x114f>
    1bea:	e2 e8       	ldi	r30, 0x82	; 130
    1bec:	03 e3       	ldi	r16, 0x33	; 51
    1bee:	de db       	rcall	.-2116   	; 0x13ac <__stack+0x8ad>
    1bf0:	75 d6       	rcall	.+3306   	; 0x28dc <audio_task+0xc2>
    1bf2:	ce d2       	rcall	.+1436   	; 0x2190 <usb_process_request+0xda>
    1bf4:	e2 d1       	rcall	.+964    	; 0x1fba <Get_adc_mic_val+0x24>
    1bf6:	84 d2       	rcall	.+1288   	; 0x2100 <usb_process_request+0x4a>
    1bf8:	c8 d4       	rcall	.+2448   	; 0x258a <__vector_10+0xcc>
    1bfa:	70 d9       	rcall	.-3360   	; 0xedc <__stack+0x3dd>
    1bfc:	ab df       	rcall	.-170    	; 0x1b54 <__stack+0x1055>
    1bfe:	80 e4       	ldi	r24, 0x40	; 64
    1c00:	2f ed       	ldi	r18, 0xDF	; 223
    1c02:	a3 f6       	brvc	.-88     	; 0x1bac <__stack+0x10ad>
    1c04:	60 00       	.word	0x0060	; ????
    1c06:	cd 06       	cpc	r12, r29
    1c08:	7e 0f       	add	r23, r30
    1c0a:	77 16       	cp	r7, r23
    1c0c:	83 1b       	sub	r24, r19
    1c0e:	8c 1d       	adc	r24, r12
    1c10:	16 1f       	adc	r17, r22
    1c12:	eb 1e       	adc	r14, r27
    1c14:	8c 1d       	adc	r24, r12
    1c16:	24 1c       	adc	r2, r4
    1c18:	ad 19       	sub	r26, r13
    1c1a:	c0 16       	cp	r12, r16
    1c1c:	be 13       	cpse	r27, r30
    1c1e:	f5 11       	cpse	r31, r5
    1c20:	7f 0f       	add	r23, r31
    1c22:	6c 0d       	add	r22, r12
    1c24:	e9 0b       	sbc	r30, r25
    1c26:	52 0b       	sbc	r21, r18
    1c28:	30 0b       	sbc	r19, r16
    1c2a:	bb 0b       	sbc	r27, r27
    1c2c:	95 0c       	add	r9, r5
    1c2e:	fe 0c       	add	r15, r14
    1c30:	6e 0d       	add	r22, r14
    1c32:	eb 0c       	add	r14, r11
    1c34:	17 0b       	sbc	r17, r23
    1c36:	f5 08       	sbc	r15, r5
    1c38:	fe 03       	fmulsu	r23, r22
    1c3a:	7c fd       	.word	0xfd7c	; ????
    1c3c:	cf f5       	brid	.+114    	; 0x1cb0 <__stack+0x11b1>
    1c3e:	2c f0       	brlt	.+10     	; 0x1c4a <__stack+0x114b>
    1c40:	91 e7       	ldi	r25, 0x71	; 113
    1c42:	29 e0       	ldi	r18, 0x09	; 9
    1c44:	16 da       	rcall	.-3028   	; 0x1072 <__stack+0x573>
    1c46:	a6 d5       	rcall	.+2892   	; 0x2794 <audio_task_init+0xa4>
    1c48:	d3 d3       	rcall	.+1958   	; 0x23f0 <usb_process_request+0x33a>
    1c4a:	eb d2       	rcall	.+1494   	; 0x2222 <usb_process_request+0x16c>
    1c4c:	fc d3       	rcall	.+2040   	; 0x2446 <usb_process_request+0x390>
    1c4e:	0f d7       	rcall	.+3614   	; 0x2a6e <__vector_21+0x120>
    1c50:	4d da       	rcall	.-2918   	; 0x10ec <__stack+0x5ed>
    1c52:	91 e0       	ldi	r25, 0x01	; 1
    1c54:	bf e8       	ldi	r27, 0x8F	; 143
    1c56:	2f f2       	brie	.-118    	; 0x1be2 <__stack+0x10e3>
    1c58:	dc f8       	.word	0xf8dc	; ????
    1c5a:	fe 02       	muls	r31, r30
    1c5c:	96 0c       	add	r9, r6
    1c5e:	06 15       	cp	r16, r6
    1c60:	c6 19       	sub	r28, r6
    1c62:	74 1f       	adc	r23, r20
    1c64:	26 23       	and	r18, r22
    1c66:	2e 25       	eor	r18, r14
    1c68:	6a 25       	eor	r22, r10
    1c6a:	a2 24       	eor	r10, r2
    1c6c:	3a 22       	and	r3, r26
    1c6e:	89 1e       	adc	r8, r25
    1c70:	a7 1b       	sub	r26, r23
    1c72:	ce 16       	cp	r12, r30
    1c74:	c6 11       	cpse	r28, r6
    1c76:	d7 0c       	add	r13, r7
    1c78:	dd 09       	sbc	r29, r13
    1c7a:	d5 05       	cpc	r29, r5
    1c7c:	c8 02       	muls	r28, r24
    1c7e:	78 00       	.word	0x0078	; ????
    1c80:	68 ff       	.word	0xff68	; ????
    1c82:	4c fe       	.word	0xfe4c	; ????
    1c84:	a6 fd       	sbrc	r26, 6
    1c86:	bf fc       	.word	0xfcbf	; ????
    1c88:	4d fc       	.word	0xfc4d	; ????
    1c8a:	aa fb       	.word	0xfbaa	; ????
    1c8c:	68 fb       	.word	0xfb68	; ????
    1c8e:	58 fb       	.word	0xfb58	; ????
    1c90:	5a fb       	.word	0xfb5a	; ????
    1c92:	46 fb       	bst	r20, 6
    1c94:	70 fb       	bst	r23, 0
    1c96:	2e fb       	.word	0xfb2e	; ????
    1c98:	16 fb       	bst	r17, 6
    1c9a:	34 fb       	bst	r19, 4
    1c9c:	45 fb       	bst	r20, 5
    1c9e:	a6 fb       	bst	r26, 6
    1ca0:	30 fc       	sbrc	r3, 0
    1ca2:	cc fc       	.word	0xfccc	; ????
    1ca4:	69 fd       	.word	0xfd69	; ????
    1ca6:	21 fe       	sbrs	r2, 1
    1ca8:	bf fe       	.word	0xfebf	; ????
    1caa:	e1 fe       	sbrs	r14, 1
    1cac:	27 ff       	sbrs	r18, 7
    1cae:	8c ff       	.word	0xff8c	; ????
    1cb0:	e9 ff       	.word	0xffe9	; ????
    1cb2:	13 00       	.word	0x0013	; ????
    1cb4:	2a 00       	.word	0x002a	; ????
    1cb6:	4b 00       	.word	0x004b	; ????
    1cb8:	5a 00       	.word	0x005a	; ????
    1cba:	6b 00       	.word	0x006b	; ????
    1cbc:	4f 00       	.word	0x004f	; ????
    1cbe:	73 00       	.word	0x0073	; ????
    1cc0:	33 00       	.word	0x0033	; ????
    1cc2:	6e 00       	.word	0x006e	; ????
    1cc4:	d2 00       	.word	0x00d2	; ????
    1cc6:	87 01       	movw	r16, r14
    1cc8:	48 02       	muls	r20, r24
    1cca:	b8 02       	muls	r27, r24
    1ccc:	36 03       	mulsu	r19, r22
    1cce:	22 03       	mulsu	r18, r18
    1cd0:	62 03       	mulsu	r22, r18
    1cd2:	66 03       	mulsu	r22, r22
    1cd4:	57 03       	mulsu	r21, r23
    1cd6:	0e 03       	fmul	r16, r22
    1cd8:	2a 03       	fmul	r18, r18
    1cda:	2c 03       	fmul	r18, r20
    1cdc:	f3 02       	muls	r31, r19
    1cde:	18 03       	fmul	r17, r16
    1ce0:	2a 03       	fmul	r18, r18
    1ce2:	e6 02       	muls	r30, r22
    1ce4:	91 02       	muls	r25, r17
    1ce6:	ba 02       	muls	r27, r26
    1ce8:	83 02       	muls	r24, r19
    1cea:	f5 01       	movw	r30, r10
    1cec:	a8 01       	movw	r20, r16
    1cee:	b4 01       	movw	r22, r8
    1cf0:	47 01       	movw	r8, r14
    1cf2:	c3 00       	.word	0x00c3	; ????
    1cf4:	c3 00       	.word	0x00c3	; ????
    1cf6:	21 01       	movw	r4, r2
    1cf8:	01 01       	movw	r0, r2
    1cfa:	ba 00       	.word	0x00ba	; ????
    1cfc:	cd 00       	.word	0x00cd	; ????
    1cfe:	89 00       	.word	0x0089	; ????
    1d00:	c8 ff       	.word	0xffc8	; ????
    1d02:	bf fe       	.word	0xfebf	; ????
    1d04:	3f fe       	.word	0xfe3f	; ????
    1d06:	b6 fd       	sbrc	r27, 6
    1d08:	e4 fc       	sbrc	r14, 4
    1d0a:	39 fc       	.word	0xfc39	; ????
    1d0c:	fd fb       	.word	0xfbfd	; ????
    1d0e:	e3 fb       	bst	r30, 3
    1d10:	c5 fb       	bst	r28, 5
    1d12:	f1 fb       	bst	r31, 1
    1d14:	5b fc       	.word	0xfc5b	; ????
    1d16:	ee fc       	.word	0xfcee	; ????
    1d18:	5e fd       	.word	0xfd5e	; ????
    1d1a:	cf fd       	.word	0xfdcf	; ????
    1d1c:	ef fd       	.word	0xfdef	; ????
    1d1e:	1d fe       	.word	0xfe1d	; ????
    1d20:	70 fe       	sbrs	r7, 0
    1d22:	b3 fe       	sbrs	r11, 3
    1d24:	c5 fe       	sbrs	r12, 5
    1d26:	4c ff       	.word	0xff4c	; ????
    1d28:	d6 ff       	sbrs	r29, 6
    1d2a:	30 00       	.word	0x0030	; ????
    1d2c:	50 00       	.word	0x0050	; ????
    1d2e:	aa 00       	.word	0x00aa	; ????
    1d30:	fa 00       	.word	0x00fa	; ????
    1d32:	1c 01       	movw	r2, r24
    1d34:	04 01       	movw	r0, r8
    1d36:	f4 00       	.word	0x00f4	; ????
    1d38:	ce 00       	.word	0x00ce	; ????
    1d3a:	ac 00       	.word	0x00ac	; ????
    1d3c:	85 00       	.word	0x0085	; ????
    1d3e:	6e 00       	.word	0x006e	; ????
    1d40:	58 04       	Address 0x0000000000001d40 is out of bounds.
.word	0xffff	; ????

00001d41 <usb_user_language_id>:
    1d41:	04 03 09 04                                         ....

00001d45 <usb_user_serial_number>:
    1d45:	0c 03 31 00 2e 00 30 00 2e 00 30 00                 ..1...0...0.

00001d51 <usb_user_product_string_descriptor>:
    1d51:	26 03 41 00 56 00 52 00 20 00 55 00 53 00 42 00     &.A.V.R. .U.S.B.
    1d61:	20 00 41 00 55 00 44 00 49 00 4f 00 20 00 44 00      .A.U.D.I.O. .D.
    1d71:	45 00 4d 00 4f 00                                   E.M.O.

00001d77 <usb_user_manufacturer_string_descriptor>:
    1d77:	0c 03 41 00 54 00 4d 00 45 00 4c 00                 ..A.T.M.E.L.

00001d83 <usb_conf_desc>:
    1d83:	09 02 be 00 03 01 00 80 32 09 04 00 00 00 01 01     ........2.......
    1d93:	00 00 0a 24 01 00 01 44 00 02 02 01 0c 24 02 01     ...$...D.....$..
    1da3:	01 01 00 01 00 00 00 00 08 24 06 02 01 01 03 00     .........$......
    1db3:	09 24 03 03 01 03 00 02 00 0c 24 02 04 01 02 00     .$........$.....
    1dc3:	01 00 00 00 00 08 24 06 05 04 01 03 00 09 24 03     ......$.......$.
    1dd3:	06 01 01 00 05 00 09 04 01 00 00 01 02 00 00 09     ................
    1de3:	04 01 01 01 01 02 00 00 07 24 01 01 01 01 00 0b     .........$......
    1df3:	24 02 01 01 02 10 01 00 7d 00 09 05 01 01 80 00     $.......}.......
    1e03:	01 00 00 07 25 01 00 00 00 00 09 04 02 00 00 01     ....%...........
    1e13:	02 00 00 09 04 02 01 01 01 02 00 00 07 24 01 06     .............$..
    1e23:	01 01 00 0b 24 02 01 01 02 10 01 40 1f 00 09 05     ....$......@....
    1e33:	82 01 10 00 01 00 00 07 25 01 00 00 00 00           ........%.....

00001e41 <usb_dev_desc>:
    1e41:	12 01 00 02 00 00 00 20 eb 03 1b 20 00 10 01 02     ....... ... ....
    1e51:	03 01 00                                            ...

00001e54 <__ctors_end>:
    1e54:	11 24       	eor	r1, r1
    1e56:	1f be       	out	0x3f, r1	; 63
    1e58:	cf ef       	ldi	r28, 0xFF	; 255
    1e5a:	da e0       	ldi	r29, 0x0A	; 10
    1e5c:	de bf       	out	0x3e, r29	; 62
    1e5e:	cd bf       	out	0x3d, r28	; 61

00001e60 <__low_level_init>:
    1e60:	20 e0       	ldi	r18, 0x00	; 0
    1e62:	30 e0       	ldi	r19, 0x00	; 0
    1e64:	80 e8       	ldi	r24, 0x80	; 128
    1e66:	0f b6       	in	r0, 0x3f	; 63
    1e68:	f8 94       	cli
    1e6a:	80 93 61 00 	sts	0x0061, r24	; 0x800061 <__TEXT_REGION_LENGTH__+0x7e0061>
    1e6e:	20 93 61 00 	sts	0x0061, r18	; 0x800061 <__TEXT_REGION_LENGTH__+0x7e0061>
    1e72:	0f be       	out	0x3f, r0	; 63
    1e74:	81 e0       	ldi	r24, 0x01	; 1

00001e76 <__do_copy_data>:
    1e76:	11 e0       	ldi	r17, 0x01	; 1
    1e78:	a0 e0       	ldi	r26, 0x00	; 0
    1e7a:	b1 e0       	ldi	r27, 0x01	; 1
    1e7c:	e2 ea       	ldi	r30, 0xA2	; 162
    1e7e:	f0 e3       	ldi	r31, 0x30	; 48
    1e80:	02 c0       	rjmp	.+4      	; 0x1e86 <__do_copy_data+0x10>
    1e82:	05 90       	lpm	r0, Z+
    1e84:	0d 92       	st	X+, r0
    1e86:	a2 30       	cpi	r26, 0x02	; 2
    1e88:	b1 07       	cpc	r27, r17
    1e8a:	d9 f7       	brne	.-10     	; 0x1e82 <__do_copy_data+0xc>

00001e8c <__do_clear_bss>:
    1e8c:	25 e0       	ldi	r18, 0x05	; 5
    1e8e:	a2 e0       	ldi	r26, 0x02	; 2
    1e90:	b1 e0       	ldi	r27, 0x01	; 1
    1e92:	01 c0       	rjmp	.+2      	; 0x1e96 <.do_clear_bss_start>

00001e94 <.do_clear_bss_loop>:
    1e94:	1d 92       	st	X+, r1

00001e96 <.do_clear_bss_start>:
    1e96:	a3 32       	cpi	r26, 0x23	; 35
    1e98:	b2 07       	cpc	r27, r18
    1e9a:	e1 f7       	brne	.-8      	; 0x1e94 <.do_clear_bss_loop>
    1e9c:	0e 94 2b 18 	call	0x3056	; 0x3056 <main>
    1ea0:	0c 94 4f 18 	jmp	0x309e	; 0x309e <_exit>

00001ea4 <__bad_interrupt>:
    1ea4:	0c 94 00 00 	jmp	0	; 0x0 <__vectors>

00001ea8 <flash_read_sig>:
    1ea8:	0f d0       	rcall	.+30     	; 0x1ec8 <WAIT_SPMEN>
    1eaa:	f7 2f       	mov	r31, r23
    1eac:	e6 2f       	mov	r30, r22
    1eae:	41 e2       	ldi	r20, 0x21	; 33
    1eb0:	47 bf       	out	0x37, r20	; 55
    1eb2:	c8 95       	lpm
    1eb4:	80 2d       	mov	r24, r0
    1eb6:	08 c0       	rjmp	.+16     	; 0x1ec8 <WAIT_SPMEN>

00001eb8 <flash_read_fuse>:
    1eb8:	07 d0       	rcall	.+14     	; 0x1ec8 <WAIT_SPMEN>
    1eba:	f7 2f       	mov	r31, r23
    1ebc:	e6 2f       	mov	r30, r22
    1ebe:	49 e0       	ldi	r20, 0x09	; 9
    1ec0:	47 bf       	out	0x37, r20	; 55
    1ec2:	c8 95       	lpm
    1ec4:	80 2d       	mov	r24, r0
    1ec6:	00 c0       	rjmp	.+0      	; 0x1ec8 <WAIT_SPMEN>

00001ec8 <WAIT_SPMEN>:
    1ec8:	02 2e       	mov	r0, r18
    1eca:	27 b7       	in	r18, 0x37	; 55
    1ecc:	20 fd       	sbrc	r18, 0
    1ece:	fc cf       	rjmp	.-8      	; 0x1ec8 <WAIT_SPMEN>
    1ed0:	20 2d       	mov	r18, r0
    1ed2:	08 95       	ret

00001ed4 <start_boot_if_required>:
    1ed4:	80 91 23 05 	lds	r24, 0x0523	; 0x800523 <__bss_end>
    1ed8:	90 91 24 05 	lds	r25, 0x0524	; 0x800524 <__bss_end+0x1>
    1edc:	a0 91 25 05 	lds	r26, 0x0525	; 0x800525 <__bss_end+0x2>
    1ee0:	b0 91 26 05 	lds	r27, 0x0526	; 0x800526 <__bss_end+0x3>
    1ee4:	85 35       	cpi	r24, 0x55	; 85
    1ee6:	9a 4a       	sbci	r25, 0xAA	; 170
    1ee8:	aa 4a       	sbci	r26, 0xAA	; 170
    1eea:	b5 45       	sbci	r27, 0x55	; 85
    1eec:	69 f4       	brne	.+26     	; 0x1f08 <start_boot_if_required+0x34>
    1eee:	10 92 23 05 	sts	0x0523, r1	; 0x800523 <__bss_end>
    1ef2:	10 92 24 05 	sts	0x0524, r1	; 0x800524 <__bss_end+0x1>
    1ef6:	10 92 25 05 	sts	0x0525, r1	; 0x800525 <__bss_end+0x2>
    1efa:	10 92 26 05 	sts	0x0526, r1	; 0x800526 <__bss_end+0x3>
    1efe:	e0 91 00 01 	lds	r30, 0x0100	; 0x800100 <__data_start>
    1f02:	f0 91 01 01 	lds	r31, 0x0101	; 0x800101 <__data_start+0x1>
    1f06:	09 94       	ijmp
    1f08:	08 95       	ret

00001f0a <usb_config_ep>:
    1f0a:	eb ee       	ldi	r30, 0xEB	; 235
    1f0c:	f0 e0       	ldi	r31, 0x00	; 0
    1f0e:	90 81       	ld	r25, Z
    1f10:	91 60       	ori	r25, 0x01	; 1
    1f12:	90 83       	st	Z, r25
    1f14:	80 93 ec 00 	sts	0x00EC, r24	; 0x8000ec <__TEXT_REGION_LENGTH__+0x7e00ec>
    1f18:	ed ee       	ldi	r30, 0xED	; 237
    1f1a:	f0 e0       	ldi	r31, 0x00	; 0
    1f1c:	80 81       	ld	r24, Z
    1f1e:	82 70       	andi	r24, 0x02	; 2
    1f20:	68 2b       	or	r22, r24
    1f22:	60 83       	st	Z, r22
    1f24:	80 81       	ld	r24, Z
    1f26:	82 60       	ori	r24, 0x02	; 2
    1f28:	80 83       	st	Z, r24
    1f2a:	80 91 ee 00 	lds	r24, 0x00EE	; 0x8000ee <__TEXT_REGION_LENGTH__+0x7e00ee>
    1f2e:	88 1f       	adc	r24, r24
    1f30:	88 27       	eor	r24, r24
    1f32:	88 1f       	adc	r24, r24
    1f34:	08 95       	ret

00001f36 <usb_init_device>:
    1f36:	10 92 e9 00 	sts	0x00E9, r1	; 0x8000e9 <__TEXT_REGION_LENGTH__+0x7e00e9>
    1f3a:	80 91 eb 00 	lds	r24, 0x00EB	; 0x8000eb <__TEXT_REGION_LENGTH__+0x7e00eb>
    1f3e:	80 fd       	sbrc	r24, 0
    1f40:	05 c0       	rjmp	.+10     	; 0x1f4c <usb_init_device+0x16>
    1f42:	10 92 e9 00 	sts	0x00E9, r1	; 0x8000e9 <__TEXT_REGION_LENGTH__+0x7e00e9>
    1f46:	60 e2       	ldi	r22, 0x20	; 32
    1f48:	82 e0       	ldi	r24, 0x02	; 2
    1f4a:	df cf       	rjmp	.-66     	; 0x1f0a <usb_config_ep>
    1f4c:	80 e0       	ldi	r24, 0x00	; 0
    1f4e:	08 95       	ret

00001f50 <init_adc>:
    1f50:	cf 93       	push	r28
    1f52:	df 93       	push	r29
    1f54:	ea e7       	ldi	r30, 0x7A	; 122
    1f56:	f0 e0       	ldi	r31, 0x00	; 0
    1f58:	80 81       	ld	r24, Z
    1f5a:	80 68       	ori	r24, 0x80	; 128
    1f5c:	80 83       	st	Z, r24
    1f5e:	ac e7       	ldi	r26, 0x7C	; 124
    1f60:	b0 e0       	ldi	r27, 0x00	; 0
    1f62:	8c 91       	ld	r24, X
    1f64:	8f 7d       	andi	r24, 0xDF	; 223
    1f66:	8c 93       	st	X, r24
    1f68:	cb e7       	ldi	r28, 0x7B	; 123
    1f6a:	d0 e0       	ldi	r29, 0x00	; 0
    1f6c:	88 81       	ld	r24, Y
    1f6e:	8f 77       	andi	r24, 0x7F	; 127
    1f70:	88 83       	st	Y, r24
    1f72:	8c 91       	ld	r24, X
    1f74:	8f 77       	andi	r24, 0x7F	; 127
    1f76:	8c 93       	st	X, r24
    1f78:	8c 91       	ld	r24, X
    1f7a:	80 64       	ori	r24, 0x40	; 64
    1f7c:	8c 93       	st	X, r24
    1f7e:	80 81       	ld	r24, Z
    1f80:	87 7f       	andi	r24, 0xF7	; 247
    1f82:	80 83       	st	Z, r24
    1f84:	80 81       	ld	r24, Z
    1f86:	88 7f       	andi	r24, 0xF8	; 248
    1f88:	80 83       	st	Z, r24
    1f8a:	80 81       	ld	r24, Z
    1f8c:	82 60       	ori	r24, 0x02	; 2
    1f8e:	80 83       	st	Z, r24
    1f90:	df 91       	pop	r29
    1f92:	cf 91       	pop	r28
    1f94:	08 95       	ret

00001f96 <Get_adc_mic_val>:
    1f96:	80 91 7c 00 	lds	r24, 0x007C	; 0x80007c <__TEXT_REGION_LENGTH__+0x7e007c>
    1f9a:	80 7e       	andi	r24, 0xE0	; 224
    1f9c:	80 93 7c 00 	sts	0x007C, r24	; 0x80007c <__TEXT_REGION_LENGTH__+0x7e007c>
    1fa0:	80 91 7b 00 	lds	r24, 0x007B	; 0x80007b <__TEXT_REGION_LENGTH__+0x7e007b>
    1fa4:	8f 7d       	andi	r24, 0xDF	; 223
    1fa6:	80 93 7b 00 	sts	0x007B, r24	; 0x80007b <__TEXT_REGION_LENGTH__+0x7e007b>
    1faa:	80 91 7c 00 	lds	r24, 0x007C	; 0x80007c <__TEXT_REGION_LENGTH__+0x7e007c>
    1fae:	81 60       	ori	r24, 0x01	; 1
    1fb0:	80 93 7c 00 	sts	0x007C, r24	; 0x80007c <__TEXT_REGION_LENGTH__+0x7e007c>
    1fb4:	80 91 7b 00 	lds	r24, 0x007B	; 0x80007b <__TEXT_REGION_LENGTH__+0x7e007b>
    1fb8:	80 62       	ori	r24, 0x20	; 32
    1fba:	80 93 7b 00 	sts	0x007B, r24	; 0x80007b <__TEXT_REGION_LENGTH__+0x7e007b>
    1fbe:	80 91 7a 00 	lds	r24, 0x007A	; 0x80007a <__TEXT_REGION_LENGTH__+0x7e007a>
    1fc2:	80 64       	ori	r24, 0x40	; 64
    1fc4:	80 93 7a 00 	sts	0x007A, r24	; 0x80007a <__TEXT_REGION_LENGTH__+0x7e007a>
    1fc8:	80 91 7a 00 	lds	r24, 0x007A	; 0x80007a <__TEXT_REGION_LENGTH__+0x7e007a>
    1fcc:	84 ff       	sbrs	r24, 4
    1fce:	fc cf       	rjmp	.-8      	; 0x1fc8 <Get_adc_mic_val+0x32>
    1fd0:	20 91 78 00 	lds	r18, 0x0078	; 0x800078 <__TEXT_REGION_LENGTH__+0x7e0078>
    1fd4:	80 91 79 00 	lds	r24, 0x0079	; 0x800079 <__TEXT_REGION_LENGTH__+0x7e0079>
    1fd8:	90 e0       	ldi	r25, 0x00	; 0
    1fda:	98 2f       	mov	r25, r24
    1fdc:	88 27       	eor	r24, r24
    1fde:	82 0f       	add	r24, r18
    1fe0:	91 1d       	adc	r25, r1
    1fe2:	08 95       	ret

00001fe4 <usb_device_task_init>:
    1fe4:	e8 ed       	ldi	r30, 0xD8	; 216
    1fe6:	f0 e0       	ldi	r31, 0x00	; 0
    1fe8:	80 81       	ld	r24, Z
    1fea:	8f 77       	andi	r24, 0x7F	; 127
    1fec:	80 83       	st	Z, r24
    1fee:	80 81       	ld	r24, Z
    1ff0:	80 68       	ori	r24, 0x80	; 128
    1ff2:	80 83       	st	Z, r24
    1ff4:	80 81       	ld	r24, Z
    1ff6:	80 61       	ori	r24, 0x10	; 16
    1ff8:	80 83       	st	Z, r24
    1ffa:	80 81       	ld	r24, Z
    1ffc:	81 60       	ori	r24, 0x01	; 1
    1ffe:	80 83       	st	Z, r24
    2000:	78 94       	sei
    2002:	08 95       	ret

00002004 <usb_start_device>:
    2004:	80 91 d8 00 	lds	r24, 0x00D8	; 0x8000d8 <__TEXT_REGION_LENGTH__+0x7e00d8>
    2008:	80 62       	ori	r24, 0x20	; 32
    200a:	80 93 d8 00 	sts	0x00D8, r24	; 0x8000d8 <__TEXT_REGION_LENGTH__+0x7e00d8>
    200e:	82 b7       	in	r24, 0x32	; 50
    2010:	80 7f       	andi	r24, 0xF0	; 240
    2012:	82 bf       	out	0x32, r24	; 50
    2014:	82 b7       	in	r24, 0x32	; 50
    2016:	8a 64       	ori	r24, 0x4A	; 74
    2018:	82 bf       	out	0x32, r24	; 50
    201a:	82 e0       	ldi	r24, 0x02	; 2
    201c:	89 bd       	out	0x29, r24	; 41
    201e:	09 b4       	in	r0, 0x29	; 41
    2020:	00 fe       	sbrs	r0, 0
    2022:	fd cf       	rjmp	.-6      	; 0x201e <usb_start_device+0x1a>
    2024:	80 91 d8 00 	lds	r24, 0x00D8	; 0x8000d8 <__TEXT_REGION_LENGTH__+0x7e00d8>
    2028:	8f 7d       	andi	r24, 0xDF	; 223
    202a:	80 93 d8 00 	sts	0x00D8, r24	; 0x8000d8 <__TEXT_REGION_LENGTH__+0x7e00d8>
    202e:	80 91 e0 00 	lds	r24, 0x00E0	; 0x8000e0 <__TEXT_REGION_LENGTH__+0x7e00e0>
    2032:	8e 7f       	andi	r24, 0xFE	; 254
    2034:	80 93 e0 00 	sts	0x00E0, r24	; 0x8000e0 <__TEXT_REGION_LENGTH__+0x7e00e0>
    2038:	80 91 e0 00 	lds	r24, 0x00E0	; 0x8000e0 <__TEXT_REGION_LENGTH__+0x7e00e0>
    203c:	87 7f       	andi	r24, 0xF7	; 247
    203e:	80 93 e0 00 	sts	0x00E0, r24	; 0x8000e0 <__TEXT_REGION_LENGTH__+0x7e00e0>
    2042:	80 91 e2 00 	lds	r24, 0x00E2	; 0x8000e2 <__TEXT_REGION_LENGTH__+0x7e00e2>
    2046:	81 60       	ori	r24, 0x01	; 1
    2048:	80 93 e2 00 	sts	0x00E2, r24	; 0x8000e2 <__TEXT_REGION_LENGTH__+0x7e00e2>
    204c:	80 91 e2 00 	lds	r24, 0x00E2	; 0x8000e2 <__TEXT_REGION_LENGTH__+0x7e00e2>
    2050:	88 60       	ori	r24, 0x08	; 8
    2052:	80 93 e2 00 	sts	0x00E2, r24	; 0x8000e2 <__TEXT_REGION_LENGTH__+0x7e00e2>
    2056:	78 94       	sei
    2058:	6e cf       	rjmp	.-292    	; 0x1f36 <usb_init_device>

0000205a <usb_device_task>:
    205a:	80 91 03 01 	lds	r24, 0x0103	; 0x800103 <usb_connected>
    205e:	81 11       	cpse	r24, r1
    2060:	0d c0       	rjmp	.+26     	; 0x207c <usb_device_task+0x22>
    2062:	80 91 d9 00 	lds	r24, 0x00D9	; 0x8000d9 <__TEXT_REGION_LENGTH__+0x7e00d9>
    2066:	80 ff       	sbrs	r24, 0
    2068:	09 c0       	rjmp	.+18     	; 0x207c <usb_device_task+0x22>
    206a:	80 91 d8 00 	lds	r24, 0x00D8	; 0x8000d8 <__TEXT_REGION_LENGTH__+0x7e00d8>
    206e:	80 68       	ori	r24, 0x80	; 128
    2070:	80 93 d8 00 	sts	0x00D8, r24	; 0x8000d8 <__TEXT_REGION_LENGTH__+0x7e00d8>
    2074:	81 e0       	ldi	r24, 0x01	; 1
    2076:	80 93 03 01 	sts	0x0103, r24	; 0x800103 <usb_connected>
    207a:	c4 df       	rcall	.-120    	; 0x2004 <usb_start_device>
    207c:	80 91 0e 01 	lds	r24, 0x010E	; 0x80010e <g_usb_event>
    2080:	90 91 0f 01 	lds	r25, 0x010F	; 0x80010f <g_usb_event+0x1>
    2084:	90 ff       	sbrs	r25, 0
    2086:	10 c0       	rjmp	.+32     	; 0x20a8 <usb_device_task+0x4e>
    2088:	80 91 0e 01 	lds	r24, 0x010E	; 0x80010e <g_usb_event>
    208c:	90 91 0f 01 	lds	r25, 0x010F	; 0x80010f <g_usb_event+0x1>
    2090:	9e 7f       	andi	r25, 0xFE	; 254
    2092:	90 93 0f 01 	sts	0x010F, r25	; 0x80010f <g_usb_event+0x1>
    2096:	80 93 0e 01 	sts	0x010E, r24	; 0x80010e <g_usb_event>
    209a:	81 e0       	ldi	r24, 0x01	; 1
    209c:	80 93 ea 00 	sts	0x00EA, r24	; 0x8000ea <__TEXT_REGION_LENGTH__+0x7e00ea>
    20a0:	10 92 ea 00 	sts	0x00EA, r1	; 0x8000ea <__TEXT_REGION_LENGTH__+0x7e00ea>
    20a4:	10 92 15 01 	sts	0x0115, r1	; 0x800115 <usb_configuration_nb>
    20a8:	10 92 e9 00 	sts	0x00E9, r1	; 0x8000e9 <__TEXT_REGION_LENGTH__+0x7e00e9>
    20ac:	80 91 e8 00 	lds	r24, 0x00E8	; 0x8000e8 <__TEXT_REGION_LENGTH__+0x7e00e8>
    20b0:	83 fd       	sbrc	r24, 3
    20b2:	01 c0       	rjmp	.+2      	; 0x20b6 <usb_process_request>
    20b4:	08 95       	ret

000020b6 <usb_process_request>:
    20b6:	cf 93       	push	r28
    20b8:	df 93       	push	r29
    20ba:	00 d0       	rcall	.+0      	; 0x20bc <usb_process_request+0x6>
    20bc:	cd b7       	in	r28, 0x3d	; 61
    20be:	de b7       	in	r29, 0x3e	; 62
    20c0:	80 91 e8 00 	lds	r24, 0x00E8	; 0x8000e8 <__TEXT_REGION_LENGTH__+0x7e00e8>
    20c4:	8b 7f       	andi	r24, 0xFB	; 251
    20c6:	80 93 e8 00 	sts	0x00E8, r24	; 0x8000e8 <__TEXT_REGION_LENGTH__+0x7e00e8>
    20ca:	80 91 f1 00 	lds	r24, 0x00F1	; 0x8000f1 <__TEXT_REGION_LENGTH__+0x7e00f1>
    20ce:	80 93 05 01 	sts	0x0105, r24	; 0x800105 <bmRequestType>
    20d2:	90 91 f1 00 	lds	r25, 0x00F1	; 0x8000f1 <__TEXT_REGION_LENGTH__+0x7e00f1>
    20d6:	49 2f       	mov	r20, r25
    20d8:	50 e0       	ldi	r21, 0x00	; 0
    20da:	4c 30       	cpi	r20, 0x0C	; 12
    20dc:	51 05       	cpc	r21, r1
    20de:	08 f0       	brcs	.+2      	; 0x20e2 <usb_process_request+0x2c>
    20e0:	d6 c1       	rjmp	.+940    	; 0x248e <usb_process_request+0x3d8>
    20e2:	fa 01       	movw	r30, r20
    20e4:	ea 5a       	subi	r30, 0xAA	; 170
    20e6:	ff 4f       	sbci	r31, 0xFF	; 255
    20e8:	d4 c7       	rjmp	.+4008   	; 0x3092 <__tablejump2__>
    20ea:	80 38       	cpi	r24, 0x80	; 128
    20ec:	09 f0       	breq	.+2      	; 0x20f0 <usb_process_request+0x3a>
    20ee:	99 c0       	rjmp	.+306    	; 0x2222 <usb_process_request+0x16c>
    20f0:	10 92 0d 01 	sts	0x010D, r1	; 0x80010d <zlp>
    20f4:	60 91 f1 00 	lds	r22, 0x00F1	; 0x8000f1 <__TEXT_REGION_LENGTH__+0x7e00f1>
    20f8:	80 91 f1 00 	lds	r24, 0x00F1	; 0x8000f1 <__TEXT_REGION_LENGTH__+0x7e00f1>
    20fc:	81 30       	cpi	r24, 0x01	; 1
    20fe:	41 f0       	breq	.+16     	; 0x2110 <usb_process_request+0x5a>
    2100:	82 30       	cpi	r24, 0x02	; 2
    2102:	81 f4       	brne	.+32     	; 0x2124 <usb_process_request+0x6e>
    2104:	8e eb       	ldi	r24, 0xBE	; 190
    2106:	80 93 16 01 	sts	0x0116, r24	; 0x800116 <data_to_transfer>
    210a:	83 e8       	ldi	r24, 0x83	; 131
    210c:	9d e1       	ldi	r25, 0x1D	; 29
    210e:	05 c0       	rjmp	.+10     	; 0x211a <usb_process_request+0x64>
    2110:	82 e1       	ldi	r24, 0x12	; 18
    2112:	80 93 16 01 	sts	0x0116, r24	; 0x800116 <data_to_transfer>
    2116:	81 e4       	ldi	r24, 0x41	; 65
    2118:	9e e1       	ldi	r25, 0x1E	; 30
    211a:	90 93 18 01 	sts	0x0118, r25	; 0x800118 <pbuffer+0x1>
    211e:	80 93 17 01 	sts	0x0117, r24	; 0x800117 <pbuffer>
    2122:	04 c0       	rjmp	.+8      	; 0x212c <usb_process_request+0x76>
    2124:	50 d5       	rcall	.+2720   	; 0x2bc6 <usb_user_get_descriptor>
    2126:	88 23       	and	r24, r24
    2128:	09 f4       	brne	.+2      	; 0x212c <usb_process_request+0x76>
    212a:	b5 c1       	rjmp	.+874    	; 0x2496 <usb_process_request+0x3e0>
    212c:	80 91 f1 00 	lds	r24, 0x00F1	; 0x8000f1 <__TEXT_REGION_LENGTH__+0x7e00f1>
    2130:	80 91 f1 00 	lds	r24, 0x00F1	; 0x8000f1 <__TEXT_REGION_LENGTH__+0x7e00f1>
    2134:	80 91 f1 00 	lds	r24, 0x00F1	; 0x8000f1 <__TEXT_REGION_LENGTH__+0x7e00f1>
    2138:	89 83       	std	Y+1, r24	; 0x01
    213a:	80 91 f1 00 	lds	r24, 0x00F1	; 0x8000f1 <__TEXT_REGION_LENGTH__+0x7e00f1>
    213e:	8a 83       	std	Y+2, r24	; 0x02
    2140:	80 91 e8 00 	lds	r24, 0x00E8	; 0x8000e8 <__TEXT_REGION_LENGTH__+0x7e00e8>
    2144:	87 7f       	andi	r24, 0xF7	; 247
    2146:	80 93 e8 00 	sts	0x00E8, r24	; 0x8000e8 <__TEXT_REGION_LENGTH__+0x7e00e8>
    214a:	80 91 16 01 	lds	r24, 0x0116	; 0x800116 <data_to_transfer>
    214e:	29 81       	ldd	r18, Y+1	; 0x01
    2150:	3a 81       	ldd	r19, Y+2	; 0x02
    2152:	48 2f       	mov	r20, r24
    2154:	50 e0       	ldi	r21, 0x00	; 0
    2156:	42 17       	cp	r20, r18
    2158:	53 07       	cpc	r21, r19
    215a:	48 f4       	brcc	.+18     	; 0x216e <usb_process_request+0xb8>
    215c:	8f 71       	andi	r24, 0x1F	; 31
    215e:	21 f4       	brne	.+8      	; 0x2168 <usb_process_request+0xb2>
    2160:	81 e0       	ldi	r24, 0x01	; 1
    2162:	80 93 0d 01 	sts	0x010D, r24	; 0x80010d <zlp>
    2166:	05 c0       	rjmp	.+10     	; 0x2172 <usb_process_request+0xbc>
    2168:	10 92 0d 01 	sts	0x010D, r1	; 0x80010d <zlp>
    216c:	02 c0       	rjmp	.+4      	; 0x2172 <usb_process_request+0xbc>
    216e:	20 93 16 01 	sts	0x0116, r18	; 0x800116 <data_to_transfer>
    2172:	80 91 e8 00 	lds	r24, 0x00E8	; 0x8000e8 <__TEXT_REGION_LENGTH__+0x7e00e8>
    2176:	8f 7e       	andi	r24, 0xEF	; 239
    2178:	80 93 e8 00 	sts	0x00E8, r24	; 0x8000e8 <__TEXT_REGION_LENGTH__+0x7e00e8>
    217c:	80 91 16 01 	lds	r24, 0x0116	; 0x800116 <data_to_transfer>
    2180:	81 11       	cpse	r24, r1
    2182:	06 c0       	rjmp	.+12     	; 0x2190 <usb_process_request+0xda>
    2184:	80 91 0d 01 	lds	r24, 0x010D	; 0x80010d <zlp>
    2188:	81 30       	cpi	r24, 0x01	; 1
    218a:	09 f0       	breq	.+2      	; 0x218e <usb_process_request+0xd8>
    218c:	3d c0       	rjmp	.+122    	; 0x2208 <usb_process_request+0x152>
    218e:	2f c0       	rjmp	.+94     	; 0x21ee <usb_process_request+0x138>
    2190:	80 91 e8 00 	lds	r24, 0x00E8	; 0x8000e8 <__TEXT_REGION_LENGTH__+0x7e00e8>
    2194:	84 fd       	sbrc	r24, 4
    2196:	f6 cf       	rjmp	.-20     	; 0x2184 <usb_process_request+0xce>
    2198:	80 91 e8 00 	lds	r24, 0x00E8	; 0x8000e8 <__TEXT_REGION_LENGTH__+0x7e00e8>
    219c:	80 fd       	sbrc	r24, 0
    219e:	04 c0       	rjmp	.+8      	; 0x21a8 <usb_process_request+0xf2>
    21a0:	80 91 e8 00 	lds	r24, 0x00E8	; 0x8000e8 <__TEXT_REGION_LENGTH__+0x7e00e8>
    21a4:	84 ff       	sbrs	r24, 4
    21a6:	f8 cf       	rjmp	.-16     	; 0x2198 <usb_process_request+0xe2>
    21a8:	81 e2       	ldi	r24, 0x21	; 33
    21aa:	90 91 16 01 	lds	r25, 0x0116	; 0x800116 <data_to_transfer>
    21ae:	99 23       	and	r25, r25
    21b0:	b1 f0       	breq	.+44     	; 0x21de <usb_process_request+0x128>
    21b2:	81 50       	subi	r24, 0x01	; 1
    21b4:	a1 f0       	breq	.+40     	; 0x21de <usb_process_request+0x128>
    21b6:	e0 91 17 01 	lds	r30, 0x0117	; 0x800117 <pbuffer>
    21ba:	f0 91 18 01 	lds	r31, 0x0118	; 0x800118 <pbuffer+0x1>
    21be:	9f 01       	movw	r18, r30
    21c0:	2f 5f       	subi	r18, 0xFF	; 255
    21c2:	3f 4f       	sbci	r19, 0xFF	; 255
    21c4:	30 93 18 01 	sts	0x0118, r19	; 0x800118 <pbuffer+0x1>
    21c8:	20 93 17 01 	sts	0x0117, r18	; 0x800117 <pbuffer>
    21cc:	e4 91       	lpm	r30, Z
    21ce:	e0 93 f1 00 	sts	0x00F1, r30	; 0x8000f1 <__TEXT_REGION_LENGTH__+0x7e00f1>
    21d2:	90 91 16 01 	lds	r25, 0x0116	; 0x800116 <data_to_transfer>
    21d6:	91 50       	subi	r25, 0x01	; 1
    21d8:	90 93 16 01 	sts	0x0116, r25	; 0x800116 <data_to_transfer>
    21dc:	e6 cf       	rjmp	.-52     	; 0x21aa <usb_process_request+0xf4>
    21de:	80 91 e8 00 	lds	r24, 0x00E8	; 0x8000e8 <__TEXT_REGION_LENGTH__+0x7e00e8>
    21e2:	84 fd       	sbrc	r24, 4
    21e4:	cf cf       	rjmp	.-98     	; 0x2184 <usb_process_request+0xce>
    21e6:	80 91 e8 00 	lds	r24, 0x00E8	; 0x8000e8 <__TEXT_REGION_LENGTH__+0x7e00e8>
    21ea:	8e 7f       	andi	r24, 0xFE	; 254
    21ec:	c5 cf       	rjmp	.-118    	; 0x2178 <usb_process_request+0xc2>
    21ee:	80 91 e8 00 	lds	r24, 0x00E8	; 0x8000e8 <__TEXT_REGION_LENGTH__+0x7e00e8>
    21f2:	84 fd       	sbrc	r24, 4
    21f4:	09 c0       	rjmp	.+18     	; 0x2208 <usb_process_request+0x152>
    21f6:	80 91 e8 00 	lds	r24, 0x00E8	; 0x8000e8 <__TEXT_REGION_LENGTH__+0x7e00e8>
    21fa:	80 ff       	sbrs	r24, 0
    21fc:	fc cf       	rjmp	.-8      	; 0x21f6 <usb_process_request+0x140>
    21fe:	80 91 e8 00 	lds	r24, 0x00E8	; 0x8000e8 <__TEXT_REGION_LENGTH__+0x7e00e8>
    2202:	8e 7f       	andi	r24, 0xFE	; 254
    2204:	80 93 e8 00 	sts	0x00E8, r24	; 0x8000e8 <__TEXT_REGION_LENGTH__+0x7e00e8>
    2208:	80 91 e8 00 	lds	r24, 0x00E8	; 0x8000e8 <__TEXT_REGION_LENGTH__+0x7e00e8>
    220c:	84 ff       	sbrs	r24, 4
    220e:	fc cf       	rjmp	.-8      	; 0x2208 <usb_process_request+0x152>
    2210:	80 91 e8 00 	lds	r24, 0x00E8	; 0x8000e8 <__TEXT_REGION_LENGTH__+0x7e00e8>
    2214:	8f 7e       	andi	r24, 0xEF	; 239
    2216:	80 93 e8 00 	sts	0x00E8, r24	; 0x8000e8 <__TEXT_REGION_LENGTH__+0x7e00e8>
    221a:	80 91 e8 00 	lds	r24, 0x00E8	; 0x8000e8 <__TEXT_REGION_LENGTH__+0x7e00e8>
    221e:	8b 7f       	andi	r24, 0xFB	; 251
    2220:	42 c1       	rjmp	.+644    	; 0x24a6 <usb_process_request+0x3f0>
    2222:	66 e0       	ldi	r22, 0x06	; 6
    2224:	1e c1       	rjmp	.+572    	; 0x2462 <usb_process_request+0x3ac>
    2226:	80 38       	cpi	r24, 0x80	; 128
    2228:	c1 f4       	brne	.+48     	; 0x225a <usb_process_request+0x1a4>
    222a:	80 91 e8 00 	lds	r24, 0x00E8	; 0x8000e8 <__TEXT_REGION_LENGTH__+0x7e00e8>
    222e:	87 7f       	andi	r24, 0xF7	; 247
    2230:	80 93 e8 00 	sts	0x00E8, r24	; 0x8000e8 <__TEXT_REGION_LENGTH__+0x7e00e8>
    2234:	80 91 15 01 	lds	r24, 0x0115	; 0x800115 <usb_configuration_nb>
    2238:	80 93 f1 00 	sts	0x00F1, r24	; 0x8000f1 <__TEXT_REGION_LENGTH__+0x7e00f1>
    223c:	80 91 e8 00 	lds	r24, 0x00E8	; 0x8000e8 <__TEXT_REGION_LENGTH__+0x7e00e8>
    2240:	8e 7f       	andi	r24, 0xFE	; 254
    2242:	80 93 e8 00 	sts	0x00E8, r24	; 0x8000e8 <__TEXT_REGION_LENGTH__+0x7e00e8>
    2246:	80 91 e8 00 	lds	r24, 0x00E8	; 0x8000e8 <__TEXT_REGION_LENGTH__+0x7e00e8>
    224a:	8f 77       	andi	r24, 0x7F	; 127
    224c:	80 93 e8 00 	sts	0x00E8, r24	; 0x8000e8 <__TEXT_REGION_LENGTH__+0x7e00e8>
    2250:	80 91 e8 00 	lds	r24, 0x00E8	; 0x8000e8 <__TEXT_REGION_LENGTH__+0x7e00e8>
    2254:	82 ff       	sbrs	r24, 2
    2256:	fc cf       	rjmp	.-8      	; 0x2250 <usb_process_request+0x19a>
    2258:	fa c0       	rjmp	.+500    	; 0x244e <usb_process_request+0x398>
    225a:	68 e0       	ldi	r22, 0x08	; 8
    225c:	02 c1       	rjmp	.+516    	; 0x2462 <usb_process_request+0x3ac>
    225e:	81 11       	cpse	r24, r1
    2260:	1d c0       	rjmp	.+58     	; 0x229c <usb_process_request+0x1e6>
    2262:	80 91 f1 00 	lds	r24, 0x00F1	; 0x8000f1 <__TEXT_REGION_LENGTH__+0x7e00f1>
    2266:	90 91 e3 00 	lds	r25, 0x00E3	; 0x8000e3 <__TEXT_REGION_LENGTH__+0x7e00e3>
    226a:	90 78       	andi	r25, 0x80	; 128
    226c:	8f 77       	andi	r24, 0x7F	; 127
    226e:	89 2b       	or	r24, r25
    2270:	80 93 e3 00 	sts	0x00E3, r24	; 0x8000e3 <__TEXT_REGION_LENGTH__+0x7e00e3>
    2274:	80 91 e8 00 	lds	r24, 0x00E8	; 0x8000e8 <__TEXT_REGION_LENGTH__+0x7e00e8>
    2278:	87 7f       	andi	r24, 0xF7	; 247
    227a:	80 93 e8 00 	sts	0x00E8, r24	; 0x8000e8 <__TEXT_REGION_LENGTH__+0x7e00e8>
    227e:	80 91 e8 00 	lds	r24, 0x00E8	; 0x8000e8 <__TEXT_REGION_LENGTH__+0x7e00e8>
    2282:	8e 7f       	andi	r24, 0xFE	; 254
    2284:	80 93 e8 00 	sts	0x00E8, r24	; 0x8000e8 <__TEXT_REGION_LENGTH__+0x7e00e8>
    2288:	80 91 e8 00 	lds	r24, 0x00E8	; 0x8000e8 <__TEXT_REGION_LENGTH__+0x7e00e8>
    228c:	80 ff       	sbrs	r24, 0
    228e:	fc cf       	rjmp	.-8      	; 0x2288 <usb_process_request+0x1d2>
    2290:	80 91 e3 00 	lds	r24, 0x00E3	; 0x8000e3 <__TEXT_REGION_LENGTH__+0x7e00e3>
    2294:	80 68       	ori	r24, 0x80	; 128
    2296:	80 93 e3 00 	sts	0x00E3, r24	; 0x8000e3 <__TEXT_REGION_LENGTH__+0x7e00e3>
    229a:	07 c1       	rjmp	.+526    	; 0x24aa <usb_process_request+0x3f4>
    229c:	65 e0       	ldi	r22, 0x05	; 5
    229e:	e1 c0       	rjmp	.+450    	; 0x2462 <usb_process_request+0x3ac>
    22a0:	81 11       	cpse	r24, r1
    22a2:	18 c0       	rjmp	.+48     	; 0x22d4 <usb_process_request+0x21e>
    22a4:	90 91 f1 00 	lds	r25, 0x00F1	; 0x8000f1 <__TEXT_REGION_LENGTH__+0x7e00f1>
    22a8:	92 30       	cpi	r25, 0x02	; 2
    22aa:	08 f0       	brcs	.+2      	; 0x22ae <usb_process_request+0x1f8>
    22ac:	f4 c0       	rjmp	.+488    	; 0x2496 <usb_process_request+0x3e0>
    22ae:	80 91 e8 00 	lds	r24, 0x00E8	; 0x8000e8 <__TEXT_REGION_LENGTH__+0x7e00e8>
    22b2:	87 7f       	andi	r24, 0xF7	; 247
    22b4:	80 93 e8 00 	sts	0x00E8, r24	; 0x8000e8 <__TEXT_REGION_LENGTH__+0x7e00e8>
    22b8:	90 93 15 01 	sts	0x0115, r25	; 0x800115 <usb_configuration_nb>
    22bc:	80 91 e8 00 	lds	r24, 0x00E8	; 0x8000e8 <__TEXT_REGION_LENGTH__+0x7e00e8>
    22c0:	8e 7f       	andi	r24, 0xFE	; 254
    22c2:	80 93 e8 00 	sts	0x00E8, r24	; 0x8000e8 <__TEXT_REGION_LENGTH__+0x7e00e8>
    22c6:	80 91 15 01 	lds	r24, 0x0115	; 0x800115 <usb_configuration_nb>
    22ca:	0f 90       	pop	r0
    22cc:	0f 90       	pop	r0
    22ce:	df 91       	pop	r29
    22d0:	cf 91       	pop	r28
    22d2:	69 c4       	rjmp	.+2258   	; 0x2ba6 <usb_user_endpoint_init>
    22d4:	69 e0       	ldi	r22, 0x09	; 9
    22d6:	c5 c0       	rjmp	.+394    	; 0x2462 <usb_process_request+0x3ac>
    22d8:	83 30       	cpi	r24, 0x03	; 3
    22da:	90 f5       	brcc	.+100    	; 0x2340 <usb_process_request+0x28a>
    22dc:	88 23       	and	r24, r24
    22de:	c9 f1       	breq	.+114    	; 0x2352 <usb_process_request+0x29c>
    22e0:	81 30       	cpi	r24, 0x01	; 1
    22e2:	09 f4       	brne	.+2      	; 0x22e6 <usb_process_request+0x230>
    22e4:	d8 c0       	rjmp	.+432    	; 0x2496 <usb_process_request+0x3e0>
    22e6:	80 91 f1 00 	lds	r24, 0x00F1	; 0x8000f1 <__TEXT_REGION_LENGTH__+0x7e00f1>
    22ea:	90 91 f1 00 	lds	r25, 0x00F1	; 0x8000f1 <__TEXT_REGION_LENGTH__+0x7e00f1>
    22ee:	81 11       	cpse	r24, r1
    22f0:	d2 c0       	rjmp	.+420    	; 0x2496 <usb_process_request+0x3e0>
    22f2:	e0 91 f1 00 	lds	r30, 0x00F1	; 0x8000f1 <__TEXT_REGION_LENGTH__+0x7e00f1>
    22f6:	ef 77       	andi	r30, 0x7F	; 127
    22f8:	e0 93 e9 00 	sts	0x00E9, r30	; 0x8000e9 <__TEXT_REGION_LENGTH__+0x7e00e9>
    22fc:	80 91 eb 00 	lds	r24, 0x00EB	; 0x8000eb <__TEXT_REGION_LENGTH__+0x7e00eb>
    2300:	80 ff       	sbrs	r24, 0
    2302:	59 c0       	rjmp	.+178    	; 0x23b6 <usb_process_request+0x300>
    2304:	ee 23       	and	r30, r30
    2306:	a9 f0       	breq	.+42     	; 0x2332 <usb_process_request+0x27c>
    2308:	80 91 eb 00 	lds	r24, 0x00EB	; 0x8000eb <__TEXT_REGION_LENGTH__+0x7e00eb>
    230c:	80 61       	ori	r24, 0x10	; 16
    230e:	80 93 eb 00 	sts	0x00EB, r24	; 0x8000eb <__TEXT_REGION_LENGTH__+0x7e00eb>
    2312:	81 e0       	ldi	r24, 0x01	; 1
    2314:	90 e0       	ldi	r25, 0x00	; 0
    2316:	0e 2e       	mov	r0, r30
    2318:	01 c0       	rjmp	.+2      	; 0x231c <usb_process_request+0x266>
    231a:	88 0f       	add	r24, r24
    231c:	0a 94       	dec	r0
    231e:	ea f7       	brpl	.-6      	; 0x231a <usb_process_request+0x264>
    2320:	80 93 ea 00 	sts	0x00EA, r24	; 0x8000ea <__TEXT_REGION_LENGTH__+0x7e00ea>
    2324:	10 92 ea 00 	sts	0x00EA, r1	; 0x8000ea <__TEXT_REGION_LENGTH__+0x7e00ea>
    2328:	80 91 eb 00 	lds	r24, 0x00EB	; 0x8000eb <__TEXT_REGION_LENGTH__+0x7e00eb>
    232c:	88 60       	ori	r24, 0x08	; 8
    232e:	80 93 eb 00 	sts	0x00EB, r24	; 0x8000eb <__TEXT_REGION_LENGTH__+0x7e00eb>
    2332:	10 92 e9 00 	sts	0x00E9, r1	; 0x8000e9 <__TEXT_REGION_LENGTH__+0x7e00e9>
    2336:	f0 e0       	ldi	r31, 0x00	; 0
    2338:	ea 5f       	subi	r30, 0xFA	; 250
    233a:	fe 4f       	sbci	r31, 0xFE	; 254
    233c:	10 82       	st	Z, r1
    233e:	32 c0       	rjmp	.+100    	; 0x23a4 <usb_process_request+0x2ee>
    2340:	61 e0       	ldi	r22, 0x01	; 1
    2342:	8f c0       	rjmp	.+286    	; 0x2462 <usb_process_request+0x3ac>
    2344:	83 30       	cpi	r24, 0x03	; 3
    2346:	d0 f5       	brcc	.+116    	; 0x23bc <usb_process_request+0x306>
    2348:	81 30       	cpi	r24, 0x01	; 1
    234a:	09 f4       	brne	.+2      	; 0x234e <usb_process_request+0x298>
    234c:	a4 c0       	rjmp	.+328    	; 0x2496 <usb_process_request+0x3e0>
    234e:	82 30       	cpi	r24, 0x02	; 2
    2350:	19 f0       	breq	.+6      	; 0x2358 <usb_process_request+0x2a2>
    2352:	80 91 f1 00 	lds	r24, 0x00F1	; 0x8000f1 <__TEXT_REGION_LENGTH__+0x7e00f1>
    2356:	9f c0       	rjmp	.+318    	; 0x2496 <usb_process_request+0x3e0>
    2358:	80 91 f1 00 	lds	r24, 0x00F1	; 0x8000f1 <__TEXT_REGION_LENGTH__+0x7e00f1>
    235c:	90 91 f1 00 	lds	r25, 0x00F1	; 0x8000f1 <__TEXT_REGION_LENGTH__+0x7e00f1>
    2360:	81 11       	cpse	r24, r1
    2362:	99 c0       	rjmp	.+306    	; 0x2496 <usb_process_request+0x3e0>
    2364:	e0 91 f1 00 	lds	r30, 0x00F1	; 0x8000f1 <__TEXT_REGION_LENGTH__+0x7e00f1>
    2368:	ef 77       	andi	r30, 0x7F	; 127
    236a:	51 f4       	brne	.+20     	; 0x2380 <usb_process_request+0x2ca>
    236c:	80 91 eb 00 	lds	r24, 0x00EB	; 0x8000eb <__TEXT_REGION_LENGTH__+0x7e00eb>
    2370:	80 62       	ori	r24, 0x20	; 32
    2372:	80 93 eb 00 	sts	0x00EB, r24	; 0x8000eb <__TEXT_REGION_LENGTH__+0x7e00eb>
    2376:	80 91 e8 00 	lds	r24, 0x00E8	; 0x8000e8 <__TEXT_REGION_LENGTH__+0x7e00e8>
    237a:	87 7f       	andi	r24, 0xF7	; 247
    237c:	80 93 e8 00 	sts	0x00E8, r24	; 0x8000e8 <__TEXT_REGION_LENGTH__+0x7e00e8>
    2380:	e0 93 e9 00 	sts	0x00E9, r30	; 0x8000e9 <__TEXT_REGION_LENGTH__+0x7e00e9>
    2384:	80 91 eb 00 	lds	r24, 0x00EB	; 0x8000eb <__TEXT_REGION_LENGTH__+0x7e00eb>
    2388:	80 ff       	sbrs	r24, 0
    238a:	15 c0       	rjmp	.+42     	; 0x23b6 <usb_process_request+0x300>
    238c:	80 91 eb 00 	lds	r24, 0x00EB	; 0x8000eb <__TEXT_REGION_LENGTH__+0x7e00eb>
    2390:	80 62       	ori	r24, 0x20	; 32
    2392:	80 93 eb 00 	sts	0x00EB, r24	; 0x8000eb <__TEXT_REGION_LENGTH__+0x7e00eb>
    2396:	10 92 e9 00 	sts	0x00E9, r1	; 0x8000e9 <__TEXT_REGION_LENGTH__+0x7e00e9>
    239a:	f0 e0       	ldi	r31, 0x00	; 0
    239c:	ea 5f       	subi	r30, 0xFA	; 250
    239e:	fe 4f       	sbci	r31, 0xFE	; 254
    23a0:	81 e0       	ldi	r24, 0x01	; 1
    23a2:	80 83       	st	Z, r24
    23a4:	80 91 e8 00 	lds	r24, 0x00E8	; 0x8000e8 <__TEXT_REGION_LENGTH__+0x7e00e8>
    23a8:	87 7f       	andi	r24, 0xF7	; 247
    23aa:	80 93 e8 00 	sts	0x00E8, r24	; 0x8000e8 <__TEXT_REGION_LENGTH__+0x7e00e8>
    23ae:	80 91 e8 00 	lds	r24, 0x00E8	; 0x8000e8 <__TEXT_REGION_LENGTH__+0x7e00e8>
    23b2:	8e 7f       	andi	r24, 0xFE	; 254
    23b4:	78 c0       	rjmp	.+240    	; 0x24a6 <usb_process_request+0x3f0>
    23b6:	10 92 e9 00 	sts	0x00E9, r1	; 0x8000e9 <__TEXT_REGION_LENGTH__+0x7e00e9>
    23ba:	6d c0       	rjmp	.+218    	; 0x2496 <usb_process_request+0x3e0>
    23bc:	63 e0       	ldi	r22, 0x03	; 3
    23be:	51 c0       	rjmp	.+162    	; 0x2462 <usb_process_request+0x3ac>
    23c0:	90 e8       	ldi	r25, 0x80	; 128
    23c2:	98 0f       	add	r25, r24
    23c4:	93 30       	cpi	r25, 0x03	; 3
    23c6:	88 f5       	brcc	.+98     	; 0x242a <usb_process_request+0x374>
    23c8:	90 91 f1 00 	lds	r25, 0x00F1	; 0x8000f1 <__TEXT_REGION_LENGTH__+0x7e00f1>
    23cc:	90 91 f1 00 	lds	r25, 0x00F1	; 0x8000f1 <__TEXT_REGION_LENGTH__+0x7e00f1>
    23d0:	e0 91 f1 00 	lds	r30, 0x00F1	; 0x8000f1 <__TEXT_REGION_LENGTH__+0x7e00f1>
    23d4:	81 38       	cpi	r24, 0x81	; 129
    23d6:	49 f0       	breq	.+18     	; 0x23ea <usb_process_request+0x334>
    23d8:	82 38       	cpi	r24, 0x82	; 130
    23da:	79 f0       	breq	.+30     	; 0x23fa <usb_process_request+0x344>
    23dc:	80 91 e8 00 	lds	r24, 0x00E8	; 0x8000e8 <__TEXT_REGION_LENGTH__+0x7e00e8>
    23e0:	87 7f       	andi	r24, 0xF7	; 247
    23e2:	80 93 e8 00 	sts	0x00E8, r24	; 0x8000e8 <__TEXT_REGION_LENGTH__+0x7e00e8>
    23e6:	81 e0       	ldi	r24, 0x01	; 1
    23e8:	12 c0       	rjmp	.+36     	; 0x240e <usb_process_request+0x358>
    23ea:	80 91 e8 00 	lds	r24, 0x00E8	; 0x8000e8 <__TEXT_REGION_LENGTH__+0x7e00e8>
    23ee:	87 7f       	andi	r24, 0xF7	; 247
    23f0:	80 93 e8 00 	sts	0x00E8, r24	; 0x8000e8 <__TEXT_REGION_LENGTH__+0x7e00e8>
    23f4:	10 92 f1 00 	sts	0x00F1, r1	; 0x8000f1 <__TEXT_REGION_LENGTH__+0x7e00f1>
    23f8:	0c c0       	rjmp	.+24     	; 0x2412 <usb_process_request+0x35c>
    23fa:	80 91 e8 00 	lds	r24, 0x00E8	; 0x8000e8 <__TEXT_REGION_LENGTH__+0x7e00e8>
    23fe:	87 7f       	andi	r24, 0xF7	; 247
    2400:	80 93 e8 00 	sts	0x00E8, r24	; 0x8000e8 <__TEXT_REGION_LENGTH__+0x7e00e8>
    2404:	ef 77       	andi	r30, 0x7F	; 127
    2406:	f0 e0       	ldi	r31, 0x00	; 0
    2408:	ea 5f       	subi	r30, 0xFA	; 250
    240a:	fe 4f       	sbci	r31, 0xFE	; 254
    240c:	80 81       	ld	r24, Z
    240e:	80 93 f1 00 	sts	0x00F1, r24	; 0x8000f1 <__TEXT_REGION_LENGTH__+0x7e00f1>
    2412:	10 92 f1 00 	sts	0x00F1, r1	; 0x8000f1 <__TEXT_REGION_LENGTH__+0x7e00f1>
    2416:	80 91 e8 00 	lds	r24, 0x00E8	; 0x8000e8 <__TEXT_REGION_LENGTH__+0x7e00e8>
    241a:	8e 7f       	andi	r24, 0xFE	; 254
    241c:	80 93 e8 00 	sts	0x00E8, r24	; 0x8000e8 <__TEXT_REGION_LENGTH__+0x7e00e8>
    2420:	80 91 e8 00 	lds	r24, 0x00E8	; 0x8000e8 <__TEXT_REGION_LENGTH__+0x7e00e8>
    2424:	82 ff       	sbrs	r24, 2
    2426:	fc cf       	rjmp	.-8      	; 0x2420 <usb_process_request+0x36a>
    2428:	12 c0       	rjmp	.+36     	; 0x244e <usb_process_request+0x398>
    242a:	60 e0       	ldi	r22, 0x00	; 0
    242c:	1a c0       	rjmp	.+52     	; 0x2462 <usb_process_request+0x3ac>
    242e:	81 38       	cpi	r24, 0x81	; 129
    2430:	b9 f4       	brne	.+46     	; 0x2460 <usb_process_request+0x3aa>
    2432:	80 91 e8 00 	lds	r24, 0x00E8	; 0x8000e8 <__TEXT_REGION_LENGTH__+0x7e00e8>
    2436:	87 7f       	andi	r24, 0xF7	; 247
    2438:	80 93 e8 00 	sts	0x00E8, r24	; 0x8000e8 <__TEXT_REGION_LENGTH__+0x7e00e8>
    243c:	80 91 e8 00 	lds	r24, 0x00E8	; 0x8000e8 <__TEXT_REGION_LENGTH__+0x7e00e8>
    2440:	8e 7f       	andi	r24, 0xFE	; 254
    2442:	80 93 e8 00 	sts	0x00E8, r24	; 0x8000e8 <__TEXT_REGION_LENGTH__+0x7e00e8>
    2446:	80 91 e8 00 	lds	r24, 0x00E8	; 0x8000e8 <__TEXT_REGION_LENGTH__+0x7e00e8>
    244a:	82 ff       	sbrs	r24, 2
    244c:	fc cf       	rjmp	.-8      	; 0x2446 <usb_process_request+0x390>
    244e:	80 91 e8 00 	lds	r24, 0x00E8	; 0x8000e8 <__TEXT_REGION_LENGTH__+0x7e00e8>
    2452:	8b 7f       	andi	r24, 0xFB	; 251
    2454:	80 93 e8 00 	sts	0x00E8, r24	; 0x8000e8 <__TEXT_REGION_LENGTH__+0x7e00e8>
    2458:	80 91 e8 00 	lds	r24, 0x00E8	; 0x8000e8 <__TEXT_REGION_LENGTH__+0x7e00e8>
    245c:	8f 77       	andi	r24, 0x7F	; 127
    245e:	23 c0       	rjmp	.+70     	; 0x24a6 <usb_process_request+0x3f0>
    2460:	6a e0       	ldi	r22, 0x0A	; 10
    2462:	0f 90       	pop	r0
    2464:	0f 90       	pop	r0
    2466:	df 91       	pop	r29
    2468:	cf 91       	pop	r28
    246a:	76 c5       	rjmp	.+2796   	; 0x2f58 <usb_user_read_request>
    246c:	81 30       	cpi	r24, 0x01	; 1
    246e:	e9 f4       	brne	.+58     	; 0x24aa <usb_process_request+0x3f4>
    2470:	80 91 e8 00 	lds	r24, 0x00E8	; 0x8000e8 <__TEXT_REGION_LENGTH__+0x7e00e8>
    2474:	87 7f       	andi	r24, 0xF7	; 247
    2476:	80 93 e8 00 	sts	0x00E8, r24	; 0x8000e8 <__TEXT_REGION_LENGTH__+0x7e00e8>
    247a:	80 91 e8 00 	lds	r24, 0x00E8	; 0x8000e8 <__TEXT_REGION_LENGTH__+0x7e00e8>
    247e:	8e 7f       	andi	r24, 0xFE	; 254
    2480:	80 93 e8 00 	sts	0x00E8, r24	; 0x8000e8 <__TEXT_REGION_LENGTH__+0x7e00e8>
    2484:	80 91 e8 00 	lds	r24, 0x00E8	; 0x8000e8 <__TEXT_REGION_LENGTH__+0x7e00e8>
    2488:	80 ff       	sbrs	r24, 0
    248a:	fc cf       	rjmp	.-8      	; 0x2484 <usb_process_request+0x3ce>
    248c:	0e c0       	rjmp	.+28     	; 0x24aa <usb_process_request+0x3f4>
    248e:	69 2f       	mov	r22, r25
    2490:	63 d5       	rcall	.+2758   	; 0x2f58 <usb_user_read_request>
    2492:	81 11       	cpse	r24, r1
    2494:	0a c0       	rjmp	.+20     	; 0x24aa <usb_process_request+0x3f4>
    2496:	80 91 eb 00 	lds	r24, 0x00EB	; 0x8000eb <__TEXT_REGION_LENGTH__+0x7e00eb>
    249a:	80 62       	ori	r24, 0x20	; 32
    249c:	80 93 eb 00 	sts	0x00EB, r24	; 0x8000eb <__TEXT_REGION_LENGTH__+0x7e00eb>
    24a0:	80 91 e8 00 	lds	r24, 0x00E8	; 0x8000e8 <__TEXT_REGION_LENGTH__+0x7e00e8>
    24a4:	87 7f       	andi	r24, 0xF7	; 247
    24a6:	80 93 e8 00 	sts	0x00E8, r24	; 0x8000e8 <__TEXT_REGION_LENGTH__+0x7e00e8>
    24aa:	0f 90       	pop	r0
    24ac:	0f 90       	pop	r0
    24ae:	df 91       	pop	r29
    24b0:	cf 91       	pop	r28
    24b2:	08 95       	ret

000024b4 <usb_task_init>:
    24b4:	97 dd       	rcall	.-1234   	; 0x1fe4 <usb_device_task_init>
    24b6:	10 92 14 01 	sts	0x0114, r1	; 0x800114 <usb_remote_wup_feature>
    24ba:	08 95       	ret

000024bc <usb_task>:
    24bc:	ce cd       	rjmp	.-1124   	; 0x205a <usb_device_task>

000024be <__vector_10>:
    24be:	1f 92       	push	r1
    24c0:	0f 92       	push	r0
    24c2:	0f b6       	in	r0, 0x3f	; 63
    24c4:	0f 92       	push	r0
    24c6:	11 24       	eor	r1, r1
    24c8:	2f 93       	push	r18
    24ca:	3f 93       	push	r19
    24cc:	4f 93       	push	r20
    24ce:	5f 93       	push	r21
    24d0:	6f 93       	push	r22
    24d2:	7f 93       	push	r23
    24d4:	8f 93       	push	r24
    24d6:	9f 93       	push	r25
    24d8:	af 93       	push	r26
    24da:	bf 93       	push	r27
    24dc:	ef 93       	push	r30
    24de:	ff 93       	push	r31
    24e0:	80 91 da 00 	lds	r24, 0x00DA	; 0x8000da <__TEXT_REGION_LENGTH__+0x7e00da>
    24e4:	80 ff       	sbrs	r24, 0
    24e6:	30 c0       	rjmp	.+96     	; 0x2548 <__vector_10+0x8a>
    24e8:	80 91 d8 00 	lds	r24, 0x00D8	; 0x8000d8 <__TEXT_REGION_LENGTH__+0x7e00d8>
    24ec:	80 ff       	sbrs	r24, 0
    24ee:	2c c0       	rjmp	.+88     	; 0x2548 <__vector_10+0x8a>
    24f0:	8e ef       	ldi	r24, 0xFE	; 254
    24f2:	80 93 da 00 	sts	0x00DA, r24	; 0x8000da <__TEXT_REGION_LENGTH__+0x7e00da>
    24f6:	80 91 d9 00 	lds	r24, 0x00D9	; 0x8000d9 <__TEXT_REGION_LENGTH__+0x7e00d9>
    24fa:	80 ff       	sbrs	r24, 0
    24fc:	18 c0       	rjmp	.+48     	; 0x252e <__vector_10+0x70>
    24fe:	81 e0       	ldi	r24, 0x01	; 1
    2500:	80 93 03 01 	sts	0x0103, r24	; 0x800103 <usb_connected>
    2504:	80 91 0e 01 	lds	r24, 0x010E	; 0x80010e <g_usb_event>
    2508:	90 91 0f 01 	lds	r25, 0x010F	; 0x80010f <g_usb_event+0x1>
    250c:	82 60       	ori	r24, 0x02	; 2
    250e:	90 93 0f 01 	sts	0x010F, r25	; 0x80010f <g_usb_event+0x1>
    2512:	80 93 0e 01 	sts	0x010E, r24	; 0x80010e <g_usb_event>
    2516:	80 91 e2 00 	lds	r24, 0x00E2	; 0x8000e2 <__TEXT_REGION_LENGTH__+0x7e00e2>
    251a:	88 60       	ori	r24, 0x08	; 8
    251c:	80 93 e2 00 	sts	0x00E2, r24	; 0x8000e2 <__TEXT_REGION_LENGTH__+0x7e00e2>
    2520:	71 dd       	rcall	.-1310   	; 0x2004 <usb_start_device>
    2522:	80 91 e0 00 	lds	r24, 0x00E0	; 0x8000e0 <__TEXT_REGION_LENGTH__+0x7e00e0>
    2526:	8e 7f       	andi	r24, 0xFE	; 254
    2528:	80 93 e0 00 	sts	0x00E0, r24	; 0x8000e0 <__TEXT_REGION_LENGTH__+0x7e00e0>
    252c:	0d c0       	rjmp	.+26     	; 0x2548 <__vector_10+0x8a>
    252e:	10 92 03 01 	sts	0x0103, r1	; 0x800103 <usb_connected>
    2532:	10 92 15 01 	sts	0x0115, r1	; 0x800115 <usb_configuration_nb>
    2536:	80 91 0e 01 	lds	r24, 0x010E	; 0x80010e <g_usb_event>
    253a:	90 91 0f 01 	lds	r25, 0x010F	; 0x80010f <g_usb_event+0x1>
    253e:	84 60       	ori	r24, 0x04	; 4
    2540:	90 93 0f 01 	sts	0x010F, r25	; 0x80010f <g_usb_event+0x1>
    2544:	80 93 0e 01 	sts	0x010E, r24	; 0x80010e <g_usb_event>
    2548:	80 91 e1 00 	lds	r24, 0x00E1	; 0x8000e1 <__TEXT_REGION_LENGTH__+0x7e00e1>
    254c:	82 ff       	sbrs	r24, 2
    254e:	07 c0       	rjmp	.+14     	; 0x255e <__vector_10+0xa0>
    2550:	80 91 e2 00 	lds	r24, 0x00E2	; 0x8000e2 <__TEXT_REGION_LENGTH__+0x7e00e2>
    2554:	82 ff       	sbrs	r24, 2
    2556:	03 c0       	rjmp	.+6      	; 0x255e <__vector_10+0xa0>
    2558:	8b ef       	ldi	r24, 0xFB	; 251
    255a:	80 93 e1 00 	sts	0x00E1, r24	; 0x8000e1 <__TEXT_REGION_LENGTH__+0x7e00e1>
    255e:	80 91 e1 00 	lds	r24, 0x00E1	; 0x8000e1 <__TEXT_REGION_LENGTH__+0x7e00e1>
    2562:	80 ff       	sbrs	r24, 0
    2564:	29 c0       	rjmp	.+82     	; 0x25b8 <__vector_10+0xfa>
    2566:	80 91 e2 00 	lds	r24, 0x00E2	; 0x8000e2 <__TEXT_REGION_LENGTH__+0x7e00e2>
    256a:	80 ff       	sbrs	r24, 0
    256c:	25 c0       	rjmp	.+74     	; 0x25b8 <__vector_10+0xfa>
    256e:	81 e0       	ldi	r24, 0x01	; 1
    2570:	80 93 02 01 	sts	0x0102, r24	; 0x800102 <__data_end>
    2574:	8f ee       	ldi	r24, 0xEF	; 239
    2576:	80 93 e1 00 	sts	0x00E1, r24	; 0x8000e1 <__TEXT_REGION_LENGTH__+0x7e00e1>
    257a:	80 91 0e 01 	lds	r24, 0x010E	; 0x80010e <g_usb_event>
    257e:	90 91 0f 01 	lds	r25, 0x010F	; 0x80010f <g_usb_event+0x1>
    2582:	80 62       	ori	r24, 0x20	; 32
    2584:	90 93 0f 01 	sts	0x010F, r25	; 0x80010f <g_usb_event+0x1>
    2588:	80 93 0e 01 	sts	0x010E, r24	; 0x80010e <g_usb_event>
    258c:	8e ef       	ldi	r24, 0xFE	; 254
    258e:	80 93 e1 00 	sts	0x00E1, r24	; 0x8000e1 <__TEXT_REGION_LENGTH__+0x7e00e1>
    2592:	80 91 e2 00 	lds	r24, 0x00E2	; 0x8000e2 <__TEXT_REGION_LENGTH__+0x7e00e2>
    2596:	80 61       	ori	r24, 0x10	; 16
    2598:	80 93 e2 00 	sts	0x00E2, r24	; 0x8000e2 <__TEXT_REGION_LENGTH__+0x7e00e2>
    259c:	80 91 e2 00 	lds	r24, 0x00E2	; 0x8000e2 <__TEXT_REGION_LENGTH__+0x7e00e2>
    25a0:	8f 7d       	andi	r24, 0xDF	; 223
    25a2:	80 93 e2 00 	sts	0x00E2, r24	; 0x8000e2 <__TEXT_REGION_LENGTH__+0x7e00e2>
    25a6:	80 91 d8 00 	lds	r24, 0x00D8	; 0x8000d8 <__TEXT_REGION_LENGTH__+0x7e00d8>
    25aa:	80 62       	ori	r24, 0x20	; 32
    25ac:	80 93 d8 00 	sts	0x00D8, r24	; 0x8000d8 <__TEXT_REGION_LENGTH__+0x7e00d8>
    25b0:	89 b5       	in	r24, 0x29	; 41
    25b2:	8d 7f       	andi	r24, 0xFD	; 253
    25b4:	89 bd       	out	0x29, r24	; 41
    25b6:	19 bc       	out	0x29, r1	; 41
    25b8:	80 91 e1 00 	lds	r24, 0x00E1	; 0x8000e1 <__TEXT_REGION_LENGTH__+0x7e00e1>
    25bc:	84 ff       	sbrs	r24, 4
    25be:	49 c0       	rjmp	.+146    	; 0x2652 <__vector_10+0x194>
    25c0:	80 91 e2 00 	lds	r24, 0x00E2	; 0x8000e2 <__TEXT_REGION_LENGTH__+0x7e00e2>
    25c4:	84 ff       	sbrs	r24, 4
    25c6:	45 c0       	rjmp	.+138    	; 0x2652 <__vector_10+0x194>
    25c8:	09 b4       	in	r0, 0x29	; 41
    25ca:	00 fe       	sbrs	r0, 0
    25cc:	36 c0       	rjmp	.+108    	; 0x263a <__vector_10+0x17c>
    25ce:	80 91 d8 00 	lds	r24, 0x00D8	; 0x8000d8 <__TEXT_REGION_LENGTH__+0x7e00d8>
    25d2:	8f 7d       	andi	r24, 0xDF	; 223
    25d4:	80 93 d8 00 	sts	0x00D8, r24	; 0x8000d8 <__TEXT_REGION_LENGTH__+0x7e00d8>
    25d8:	9f ee       	ldi	r25, 0xEF	; 239
    25da:	90 93 e1 00 	sts	0x00E1, r25	; 0x8000e1 <__TEXT_REGION_LENGTH__+0x7e00e1>
    25de:	80 91 02 01 	lds	r24, 0x0102	; 0x800102 <__data_end>
    25e2:	88 23       	and	r24, r24
    25e4:	b1 f1       	breq	.+108    	; 0x2652 <__vector_10+0x194>
    25e6:	80 91 e2 00 	lds	r24, 0x00E2	; 0x8000e2 <__TEXT_REGION_LENGTH__+0x7e00e2>
    25ea:	80 62       	ori	r24, 0x20	; 32
    25ec:	80 93 e2 00 	sts	0x00E2, r24	; 0x8000e2 <__TEXT_REGION_LENGTH__+0x7e00e2>
    25f0:	80 91 e2 00 	lds	r24, 0x00E2	; 0x8000e2 <__TEXT_REGION_LENGTH__+0x7e00e2>
    25f4:	88 60       	ori	r24, 0x08	; 8
    25f6:	80 93 e2 00 	sts	0x00E2, r24	; 0x8000e2 <__TEXT_REGION_LENGTH__+0x7e00e2>
    25fa:	90 93 e1 00 	sts	0x00E1, r25	; 0x8000e1 <__TEXT_REGION_LENGTH__+0x7e00e1>
    25fe:	80 91 e2 00 	lds	r24, 0x00E2	; 0x8000e2 <__TEXT_REGION_LENGTH__+0x7e00e2>
    2602:	8f 7e       	andi	r24, 0xEF	; 239
    2604:	80 93 e2 00 	sts	0x00E2, r24	; 0x8000e2 <__TEXT_REGION_LENGTH__+0x7e00e2>
    2608:	80 91 0e 01 	lds	r24, 0x010E	; 0x80010e <g_usb_event>
    260c:	90 91 0f 01 	lds	r25, 0x010F	; 0x80010f <g_usb_event+0x1>
    2610:	80 64       	ori	r24, 0x40	; 64
    2612:	90 93 0f 01 	sts	0x010F, r25	; 0x80010f <g_usb_event+0x1>
    2616:	80 93 0e 01 	sts	0x010E, r24	; 0x80010e <g_usb_event>
    261a:	80 91 e2 00 	lds	r24, 0x00E2	; 0x8000e2 <__TEXT_REGION_LENGTH__+0x7e00e2>
    261e:	81 60       	ori	r24, 0x01	; 1
    2620:	80 93 e2 00 	sts	0x00E2, r24	; 0x8000e2 <__TEXT_REGION_LENGTH__+0x7e00e2>
    2624:	80 91 e2 00 	lds	r24, 0x00E2	; 0x8000e2 <__TEXT_REGION_LENGTH__+0x7e00e2>
    2628:	80 62       	ori	r24, 0x20	; 32
    262a:	80 93 e2 00 	sts	0x00E2, r24	; 0x8000e2 <__TEXT_REGION_LENGTH__+0x7e00e2>
    262e:	80 91 e2 00 	lds	r24, 0x00E2	; 0x8000e2 <__TEXT_REGION_LENGTH__+0x7e00e2>
    2632:	88 60       	ori	r24, 0x08	; 8
    2634:	80 93 e2 00 	sts	0x00E2, r24	; 0x8000e2 <__TEXT_REGION_LENGTH__+0x7e00e2>
    2638:	0c c0       	rjmp	.+24     	; 0x2652 <__vector_10+0x194>
    263a:	82 b7       	in	r24, 0x32	; 50
    263c:	80 7f       	andi	r24, 0xF0	; 240
    263e:	82 bf       	out	0x32, r24	; 50
    2640:	82 b7       	in	r24, 0x32	; 50
    2642:	8a 64       	ori	r24, 0x4A	; 74
    2644:	82 bf       	out	0x32, r24	; 50
    2646:	82 e0       	ldi	r24, 0x02	; 2
    2648:	89 bd       	out	0x29, r24	; 41
    264a:	09 b4       	in	r0, 0x29	; 41
    264c:	00 fe       	sbrs	r0, 0
    264e:	fd cf       	rjmp	.-6      	; 0x264a <__vector_10+0x18c>
    2650:	be cf       	rjmp	.-132    	; 0x25ce <__vector_10+0x110>
    2652:	80 91 e1 00 	lds	r24, 0x00E1	; 0x8000e1 <__TEXT_REGION_LENGTH__+0x7e00e1>
    2656:	85 ff       	sbrs	r24, 5
    2658:	1c c0       	rjmp	.+56     	; 0x2692 <__vector_10+0x1d4>
    265a:	80 91 e2 00 	lds	r24, 0x00E2	; 0x8000e2 <__TEXT_REGION_LENGTH__+0x7e00e2>
    265e:	85 ff       	sbrs	r24, 5
    2660:	18 c0       	rjmp	.+48     	; 0x2692 <__vector_10+0x1d4>
    2662:	10 92 02 01 	sts	0x0102, r1	; 0x800102 <__data_end>
    2666:	80 91 e2 00 	lds	r24, 0x00E2	; 0x8000e2 <__TEXT_REGION_LENGTH__+0x7e00e2>
    266a:	8f 7e       	andi	r24, 0xEF	; 239
    266c:	80 93 e2 00 	sts	0x00E2, r24	; 0x8000e2 <__TEXT_REGION_LENGTH__+0x7e00e2>
    2670:	8f ed       	ldi	r24, 0xDF	; 223
    2672:	80 93 e1 00 	sts	0x00E1, r24	; 0x8000e1 <__TEXT_REGION_LENGTH__+0x7e00e1>
    2676:	80 91 e2 00 	lds	r24, 0x00E2	; 0x8000e2 <__TEXT_REGION_LENGTH__+0x7e00e2>
    267a:	8f 7d       	andi	r24, 0xDF	; 223
    267c:	80 93 e2 00 	sts	0x00E2, r24	; 0x8000e2 <__TEXT_REGION_LENGTH__+0x7e00e2>
    2680:	80 91 0e 01 	lds	r24, 0x010E	; 0x80010e <g_usb_event>
    2684:	90 91 0f 01 	lds	r25, 0x010F	; 0x80010f <g_usb_event+0x1>
    2688:	80 68       	ori	r24, 0x80	; 128
    268a:	90 93 0f 01 	sts	0x010F, r25	; 0x80010f <g_usb_event+0x1>
    268e:	80 93 0e 01 	sts	0x010E, r24	; 0x80010e <g_usb_event>
    2692:	80 91 e1 00 	lds	r24, 0x00E1	; 0x8000e1 <__TEXT_REGION_LENGTH__+0x7e00e1>
    2696:	83 ff       	sbrs	r24, 3
    2698:	13 c0       	rjmp	.+38     	; 0x26c0 <__vector_10+0x202>
    269a:	80 91 e2 00 	lds	r24, 0x00E2	; 0x8000e2 <__TEXT_REGION_LENGTH__+0x7e00e2>
    269e:	83 ff       	sbrs	r24, 3
    26a0:	0f c0       	rjmp	.+30     	; 0x26c0 <__vector_10+0x202>
    26a2:	10 92 14 01 	sts	0x0114, r1	; 0x800114 <usb_remote_wup_feature>
    26a6:	87 ef       	ldi	r24, 0xF7	; 247
    26a8:	80 93 e1 00 	sts	0x00E1, r24	; 0x8000e1 <__TEXT_REGION_LENGTH__+0x7e00e1>
    26ac:	44 dc       	rcall	.-1912   	; 0x1f36 <usb_init_device>
    26ae:	80 91 0e 01 	lds	r24, 0x010E	; 0x80010e <g_usb_event>
    26b2:	90 91 0f 01 	lds	r25, 0x010F	; 0x80010f <g_usb_event+0x1>
    26b6:	91 60       	ori	r25, 0x01	; 1
    26b8:	90 93 0f 01 	sts	0x010F, r25	; 0x80010f <g_usb_event+0x1>
    26bc:	80 93 0e 01 	sts	0x010E, r24	; 0x80010e <g_usb_event>
    26c0:	ff 91       	pop	r31
    26c2:	ef 91       	pop	r30
    26c4:	bf 91       	pop	r27
    26c6:	af 91       	pop	r26
    26c8:	9f 91       	pop	r25
    26ca:	8f 91       	pop	r24
    26cc:	7f 91       	pop	r23
    26ce:	6f 91       	pop	r22
    26d0:	5f 91       	pop	r21
    26d2:	4f 91       	pop	r20
    26d4:	3f 91       	pop	r19
    26d6:	2f 91       	pop	r18
    26d8:	0f 90       	pop	r0
    26da:	0f be       	out	0x3f, r0	; 63
    26dc:	0f 90       	pop	r0
    26de:	1f 90       	pop	r1
    26e0:	18 95       	reti

000026e2 <scheduler_init>:
    26e2:	e8 de       	rcall	.-560    	; 0x24b4 <usb_task_init>
    26e4:	05 c0       	rjmp	.+10     	; 0x26f0 <audio_task_init>

000026e6 <scheduler_tasks>:
    26e6:	ea de       	rcall	.-556    	; 0x24bc <usb_task>
    26e8:	98 d0       	rcall	.+304    	; 0x281a <audio_task>
    26ea:	fd cf       	rjmp	.-6      	; 0x26e6 <scheduler_tasks>

000026ec <scheduler>:
    26ec:	fa df       	rcall	.-12     	; 0x26e2 <scheduler_init>
    26ee:	fb df       	rcall	.-10     	; 0x26e6 <scheduler_tasks>

000026f0 <audio_task_init>:
    26f0:	3e 98       	cbi	0x07, 6	; 7
    26f2:	46 9a       	sbi	0x08, 6	; 8
    26f4:	63 e0       	ldi	r22, 0x03	; 3
    26f6:	70 e0       	ldi	r23, 0x00	; 0
    26f8:	80 e0       	ldi	r24, 0x00	; 0
    26fa:	90 e0       	ldi	r25, 0x00	; 0
    26fc:	dd db       	rcall	.-2118   	; 0x1eb8 <flash_read_fuse>
    26fe:	86 ff       	sbrs	r24, 6
    2700:	06 c0       	rjmp	.+12     	; 0x270e <audio_task_init+0x1e>
    2702:	80 b3       	in	r24, 0x10	; 16
    2704:	8f 70       	andi	r24, 0x0F	; 15
    2706:	80 bb       	out	0x10, r24	; 16
    2708:	81 b3       	in	r24, 0x11	; 17
    270a:	80 6f       	ori	r24, 0xF0	; 240
    270c:	81 bb       	out	0x11, r24	; 17
    270e:	6a 98       	cbi	0x0d, 2	; 13
    2710:	72 9a       	sbi	0x0e, 2	; 14
    2712:	1e dc       	rcall	.-1988   	; 0x1f50 <init_adc>
    2714:	8b e1       	ldi	r24, 0x1B	; 27
    2716:	91 e0       	ldi	r25, 0x01	; 1
    2718:	90 93 1e 05 	sts	0x051E, r25	; 0x80051e <ptr_speaker_data_wr+0x1>
    271c:	80 93 1d 05 	sts	0x051D, r24	; 0x80051d <ptr_speaker_data_wr>
    2720:	90 93 21 05 	sts	0x0521, r25	; 0x800521 <ptr_speaker_data_rd+0x1>
    2724:	80 93 20 05 	sts	0x0520, r24	; 0x800520 <ptr_speaker_data_rd>
    2728:	84 b5       	in	r24, 0x24	; 36
    272a:	8c 7f       	andi	r24, 0xFC	; 252
    272c:	82 60       	ori	r24, 0x02	; 2
    272e:	84 bd       	out	0x24, r24	; 36
    2730:	88 e7       	ldi	r24, 0x78	; 120
    2732:	87 bd       	out	0x27, r24	; 39
    2734:	85 b5       	in	r24, 0x25	; 37
    2736:	88 7f       	andi	r24, 0xF8	; 248
    2738:	82 60       	ori	r24, 0x02	; 2
    273a:	85 bd       	out	0x25, r24	; 37
    273c:	80 91 6e 00 	lds	r24, 0x006E	; 0x80006e <__TEXT_REGION_LENGTH__+0x7e006e>
    2740:	82 60       	ori	r24, 0x02	; 2
    2742:	80 93 6e 00 	sts	0x006E, r24	; 0x80006e <__TEXT_REGION_LENGTH__+0x7e006e>
    2746:	82 b7       	in	r24, 0x32	; 50
    2748:	8f 7c       	andi	r24, 0xCF	; 207
    274a:	82 bf       	out	0x32, r24	; 50
    274c:	82 b7       	in	r24, 0x32	; 50
    274e:	80 62       	ori	r24, 0x20	; 32
    2750:	82 bf       	out	0x32, r24	; 50
    2752:	10 92 c1 00 	sts	0x00C1, r1	; 0x8000c1 <__TEXT_REGION_LENGTH__+0x7e00c1>
    2756:	10 92 c0 00 	sts	0x00C0, r1	; 0x8000c0 <__TEXT_REGION_LENGTH__+0x7e00c0>
    275a:	10 92 c2 00 	sts	0x00C2, r1	; 0x8000c2 <__TEXT_REGION_LENGTH__+0x7e00c2>
    275e:	10 92 c3 00 	sts	0x00C3, r1	; 0x8000c3 <__TEXT_REGION_LENGTH__+0x7e00c3>
    2762:	10 92 c4 00 	sts	0x00C4, r1	; 0x8000c4 <__TEXT_REGION_LENGTH__+0x7e00c4>
    2766:	10 92 bf 00 	sts	0x00BF, r1	; 0x8000bf <__TEXT_REGION_LENGTH__+0x7e00bf>
    276a:	10 92 bf 00 	sts	0x00BF, r1	; 0x8000bf <__TEXT_REGION_LENGTH__+0x7e00bf>
    276e:	10 92 be 00 	sts	0x00BE, r1	; 0x8000be <__TEXT_REGION_LENGTH__+0x7e00be>
    2772:	10 92 bf 00 	sts	0x00BF, r1	; 0x8000bf <__TEXT_REGION_LENGTH__+0x7e00bf>
    2776:	10 92 cf 00 	sts	0x00CF, r1	; 0x8000cf <__TEXT_REGION_LENGTH__+0x7e00cf>
    277a:	10 92 bf 00 	sts	0x00BF, r1	; 0x8000bf <__TEXT_REGION_LENGTH__+0x7e00bf>
    277e:	10 92 d0 00 	sts	0x00D0, r1	; 0x8000d0 <__TEXT_REGION_LENGTH__+0x7e00d0>
    2782:	10 92 bf 00 	sts	0x00BF, r1	; 0x8000bf <__TEXT_REGION_LENGTH__+0x7e00bf>
    2786:	10 92 d2 00 	sts	0x00D2, r1	; 0x8000d2 <__TEXT_REGION_LENGTH__+0x7e00d2>
    278a:	80 91 c0 00 	lds	r24, 0x00C0	; 0x8000c0 <__TEXT_REGION_LENGTH__+0x7e00c0>
    278e:	8c 7f       	andi	r24, 0xFC	; 252
    2790:	80 93 c3 00 	sts	0x00C3, r24	; 0x8000c3 <__TEXT_REGION_LENGTH__+0x7e00c3>
    2794:	83 e0       	ldi	r24, 0x03	; 3
    2796:	80 93 bf 00 	sts	0x00BF, r24	; 0x8000bf <__TEXT_REGION_LENGTH__+0x7e00bf>
    279a:	8f ef       	ldi	r24, 0xFF	; 255
    279c:	80 93 d1 00 	sts	0x00D1, r24	; 0x8000d1 <__TEXT_REGION_LENGTH__+0x7e00d1>
    27a0:	57 9a       	sbi	0x0a, 7	; 10
    27a2:	80 91 c2 00 	lds	r24, 0x00C2	; 0x8000c2 <__TEXT_REGION_LENGTH__+0x7e00c2>
    27a6:	88 60       	ori	r24, 0x08	; 8
    27a8:	80 93 c2 00 	sts	0x00C2, r24	; 0x8000c2 <__TEXT_REGION_LENGTH__+0x7e00c2>
    27ac:	80 91 c2 00 	lds	r24, 0x00C2	; 0x8000c2 <__TEXT_REGION_LENGTH__+0x7e00c2>
    27b0:	81 60       	ori	r24, 0x01	; 1
    27b2:	80 93 c2 00 	sts	0x00C2, r24	; 0x8000c2 <__TEXT_REGION_LENGTH__+0x7e00c2>
    27b6:	80 91 c1 00 	lds	r24, 0x00C1	; 0x8000c1 <__TEXT_REGION_LENGTH__+0x7e00c1>
    27ba:	80 7f       	andi	r24, 0xF0	; 240
    27bc:	81 60       	ori	r24, 0x01	; 1
    27be:	80 93 c1 00 	sts	0x00C1, r24	; 0x8000c1 <__TEXT_REGION_LENGTH__+0x7e00c1>
    27c2:	80 91 80 00 	lds	r24, 0x0080	; 0x800080 <__TEXT_REGION_LENGTH__+0x7e0080>
    27c6:	8c 7f       	andi	r24, 0xFC	; 252
    27c8:	80 93 80 00 	sts	0x0080, r24	; 0x800080 <__TEXT_REGION_LENGTH__+0x7e0080>
    27cc:	80 91 81 00 	lds	r24, 0x0081	; 0x800081 <__TEXT_REGION_LENGTH__+0x7e0081>
    27d0:	87 7e       	andi	r24, 0xE7	; 231
    27d2:	88 60       	ori	r24, 0x08	; 8
    27d4:	80 93 81 00 	sts	0x0081, r24	; 0x800081 <__TEXT_REGION_LENGTH__+0x7e0081>
    27d8:	10 92 89 00 	sts	0x0089, r1	; 0x800089 <__TEXT_REGION_LENGTH__+0x7e0089>
    27dc:	89 ef       	ldi	r24, 0xF9	; 249
    27de:	80 93 88 00 	sts	0x0088, r24	; 0x800088 <__TEXT_REGION_LENGTH__+0x7e0088>
    27e2:	80 91 81 00 	lds	r24, 0x0081	; 0x800081 <__TEXT_REGION_LENGTH__+0x7e0081>
    27e6:	88 7f       	andi	r24, 0xF8	; 248
    27e8:	81 60       	ori	r24, 0x01	; 1
    27ea:	80 93 81 00 	sts	0x0081, r24	; 0x800081 <__TEXT_REGION_LENGTH__+0x7e0081>
    27ee:	80 91 6f 00 	lds	r24, 0x006F	; 0x80006f <__TEXT_REGION_LENGTH__+0x7e006f>
    27f2:	82 60       	ori	r24, 0x02	; 2
    27f4:	80 93 6f 00 	sts	0x006F, r24	; 0x80006f <__TEXT_REGION_LENGTH__+0x7e006f>
    27f8:	10 92 22 05 	sts	0x0522, r1	; 0x800522 <b_speaker_mute>
    27fc:	10 92 1f 05 	sts	0x051F, r1	; 0x80051f <b_micro_mute>
    2800:	89 e0       	ldi	r24, 0x09	; 9
    2802:	90 e0       	ldi	r25, 0x00	; 0
    2804:	90 93 1a 01 	sts	0x011A, r25	; 0x80011a <s16_speaker_volume+0x1>
    2808:	80 93 19 01 	sts	0x0119, r24	; 0x800119 <s16_speaker_volume>
    280c:	80 e0       	ldi	r24, 0x00	; 0
    280e:	90 e7       	ldi	r25, 0x70	; 112
    2810:	90 93 1c 05 	sts	0x051C, r25	; 0x80051c <s16_micro_volume+0x1>
    2814:	80 93 1b 05 	sts	0x051B, r24	; 0x80051b <s16_micro_volume>
    2818:	08 95       	ret

0000281a <audio_task>:
    281a:	80 91 15 01 	lds	r24, 0x0115	; 0x800115 <usb_configuration_nb>
    281e:	88 23       	and	r24, r24
    2820:	09 f4       	brne	.+2      	; 0x2824 <audio_task+0xa>
    2822:	6d c0       	rjmp	.+218    	; 0x28fe <audio_task+0xe4>
    2824:	80 91 1d 05 	lds	r24, 0x051D	; 0x80051d <ptr_speaker_data_wr>
    2828:	90 91 1e 05 	lds	r25, 0x051E	; 0x80051e <ptr_speaker_data_wr+0x1>
    282c:	20 91 20 05 	lds	r18, 0x0520	; 0x800520 <ptr_speaker_data_rd>
    2830:	30 91 21 05 	lds	r19, 0x0521	; 0x800521 <ptr_speaker_data_rd+0x1>
    2834:	40 91 88 00 	lds	r20, 0x0088	; 0x800088 <__TEXT_REGION_LENGTH__+0x7e0088>
    2838:	50 91 89 00 	lds	r21, 0x0089	; 0x800089 <__TEXT_REGION_LENGTH__+0x7e0089>
    283c:	82 17       	cp	r24, r18
    283e:	93 07       	cpc	r25, r19
    2840:	70 f4       	brcc	.+28     	; 0x285e <audio_task+0x44>
    2842:	9c 5f       	subi	r25, 0xFC	; 252
    2844:	82 1b       	sub	r24, r18
    2846:	93 0b       	sbc	r25, r19
    2848:	49 3f       	cpi	r20, 0xF9	; 249
    284a:	51 05       	cpc	r21, r1
    284c:	21 f4       	brne	.+8      	; 0x2856 <audio_task+0x3c>
    284e:	80 38       	cpi	r24, 0x80	; 128
    2850:	91 05       	cpc	r25, r1
    2852:	c8 f4       	brcc	.+50     	; 0x2886 <audio_task+0x6c>
    2854:	0c c0       	rjmp	.+24     	; 0x286e <audio_task+0x54>
    2856:	81 38       	cpi	r24, 0x81	; 129
    2858:	93 40       	sbci	r25, 0x03	; 3
    285a:	a8 f0       	brcs	.+42     	; 0x2886 <audio_task+0x6c>
    285c:	0f c0       	rjmp	.+30     	; 0x287c <audio_task+0x62>
    285e:	82 1b       	sub	r24, r18
    2860:	93 0b       	sbc	r25, r19
    2862:	49 3f       	cpi	r20, 0xF9	; 249
    2864:	51 05       	cpc	r21, r1
    2866:	39 f4       	brne	.+14     	; 0x2876 <audio_task+0x5c>
    2868:	80 38       	cpi	r24, 0x80	; 128
    286a:	91 05       	cpc	r25, r1
    286c:	64 f4       	brge	.+24     	; 0x2886 <audio_task+0x6c>
    286e:	10 92 89 00 	sts	0x0089, r1	; 0x800089 <__TEXT_REGION_LENGTH__+0x7e0089>
    2872:	8b ef       	ldi	r24, 0xFB	; 251
    2874:	06 c0       	rjmp	.+12     	; 0x2882 <audio_task+0x68>
    2876:	80 38       	cpi	r24, 0x80	; 128
    2878:	93 40       	sbci	r25, 0x03	; 3
    287a:	2c f4       	brge	.+10     	; 0x2886 <audio_task+0x6c>
    287c:	10 92 89 00 	sts	0x0089, r1	; 0x800089 <__TEXT_REGION_LENGTH__+0x7e0089>
    2880:	89 ef       	ldi	r24, 0xF9	; 249
    2882:	80 93 88 00 	sts	0x0088, r24	; 0x800088 <__TEXT_REGION_LENGTH__+0x7e0088>
    2886:	81 e0       	ldi	r24, 0x01	; 1
    2888:	80 93 e9 00 	sts	0x00E9, r24	; 0x8000e9 <__TEXT_REGION_LENGTH__+0x7e00e9>
    288c:	80 91 e8 00 	lds	r24, 0x00E8	; 0x8000e8 <__TEXT_REGION_LENGTH__+0x7e00e8>
    2890:	82 ff       	sbrs	r24, 2
    2892:	35 c0       	rjmp	.+106    	; 0x28fe <audio_task+0xe4>
    2894:	80 e0       	ldi	r24, 0x00	; 0
    2896:	2b e1       	ldi	r18, 0x1B	; 27
    2898:	31 e0       	ldi	r19, 0x01	; 1
    289a:	90 91 f2 00 	lds	r25, 0x00F2	; 0x8000f2 <__TEXT_REGION_LENGTH__+0x7e00f2>
    289e:	99 23       	and	r25, r25
    28a0:	39 f1       	breq	.+78     	; 0x28f0 <audio_task+0xd6>
    28a2:	e0 91 1d 05 	lds	r30, 0x051D	; 0x80051d <ptr_speaker_data_wr>
    28a6:	f0 91 1e 05 	lds	r31, 0x051E	; 0x80051e <ptr_speaker_data_wr+0x1>
    28aa:	cf 01       	movw	r24, r30
    28ac:	01 96       	adiw	r24, 0x01	; 1
    28ae:	90 93 1e 05 	sts	0x051E, r25	; 0x80051e <ptr_speaker_data_wr+0x1>
    28b2:	80 93 1d 05 	sts	0x051D, r24	; 0x80051d <ptr_speaker_data_wr>
    28b6:	80 91 f1 00 	lds	r24, 0x00F1	; 0x8000f1 <__TEXT_REGION_LENGTH__+0x7e00f1>
    28ba:	80 83       	st	Z, r24
    28bc:	e0 91 1d 05 	lds	r30, 0x051D	; 0x80051d <ptr_speaker_data_wr>
    28c0:	f0 91 1e 05 	lds	r31, 0x051E	; 0x80051e <ptr_speaker_data_wr+0x1>
    28c4:	cf 01       	movw	r24, r30
    28c6:	01 96       	adiw	r24, 0x01	; 1
    28c8:	90 93 1e 05 	sts	0x051E, r25	; 0x80051e <ptr_speaker_data_wr+0x1>
    28cc:	80 93 1d 05 	sts	0x051D, r24	; 0x80051d <ptr_speaker_data_wr>
    28d0:	80 91 f1 00 	lds	r24, 0x00F1	; 0x8000f1 <__TEXT_REGION_LENGTH__+0x7e00f1>
    28d4:	80 83       	st	Z, r24
    28d6:	81 e0       	ldi	r24, 0x01	; 1
    28d8:	40 91 1d 05 	lds	r20, 0x051D	; 0x80051d <ptr_speaker_data_wr>
    28dc:	50 91 1e 05 	lds	r21, 0x051E	; 0x80051e <ptr_speaker_data_wr+0x1>
    28e0:	4b 51       	subi	r20, 0x1B	; 27
    28e2:	55 40       	sbci	r21, 0x05	; 5
    28e4:	d1 f6       	brne	.-76     	; 0x289a <audio_task+0x80>
    28e6:	30 93 1e 05 	sts	0x051E, r19	; 0x80051e <ptr_speaker_data_wr+0x1>
    28ea:	20 93 1d 05 	sts	0x051D, r18	; 0x80051d <ptr_speaker_data_wr>
    28ee:	d5 cf       	rjmp	.-86     	; 0x289a <audio_task+0x80>
    28f0:	88 23       	and	r24, r24
    28f2:	29 f0       	breq	.+10     	; 0x28fe <audio_task+0xe4>
    28f4:	80 91 e8 00 	lds	r24, 0x00E8	; 0x8000e8 <__TEXT_REGION_LENGTH__+0x7e00e8>
    28f8:	8f 77       	andi	r24, 0x7F	; 127
    28fa:	80 93 e8 00 	sts	0x00E8, r24	; 0x8000e8 <__TEXT_REGION_LENGTH__+0x7e00e8>
    28fe:	08 95       	ret

00002900 <Get_adc_ext_val>:
    2900:	80 91 7c 00 	lds	r24, 0x007C	; 0x80007c <__TEXT_REGION_LENGTH__+0x7e007c>
    2904:	80 7e       	andi	r24, 0xE0	; 224
    2906:	80 93 7c 00 	sts	0x007C, r24	; 0x80007c <__TEXT_REGION_LENGTH__+0x7e007c>
    290a:	80 91 7b 00 	lds	r24, 0x007B	; 0x80007b <__TEXT_REGION_LENGTH__+0x7e007b>
    290e:	8f 7d       	andi	r24, 0xDF	; 223
    2910:	80 93 7b 00 	sts	0x007B, r24	; 0x80007b <__TEXT_REGION_LENGTH__+0x7e007b>
    2914:	80 91 7c 00 	lds	r24, 0x007C	; 0x80007c <__TEXT_REGION_LENGTH__+0x7e007c>
    2918:	85 60       	ori	r24, 0x05	; 5
    291a:	80 93 7c 00 	sts	0x007C, r24	; 0x80007c <__TEXT_REGION_LENGTH__+0x7e007c>
    291e:	80 91 7b 00 	lds	r24, 0x007B	; 0x80007b <__TEXT_REGION_LENGTH__+0x7e007b>
    2922:	80 62       	ori	r24, 0x20	; 32
    2924:	80 93 7b 00 	sts	0x007B, r24	; 0x80007b <__TEXT_REGION_LENGTH__+0x7e007b>
    2928:	80 91 7a 00 	lds	r24, 0x007A	; 0x80007a <__TEXT_REGION_LENGTH__+0x7e007a>
    292c:	80 64       	ori	r24, 0x40	; 64
    292e:	80 93 7a 00 	sts	0x007A, r24	; 0x80007a <__TEXT_REGION_LENGTH__+0x7e007a>
    2932:	80 91 7a 00 	lds	r24, 0x007A	; 0x80007a <__TEXT_REGION_LENGTH__+0x7e007a>
    2936:	84 ff       	sbrs	r24, 4
    2938:	fc cf       	rjmp	.-8      	; 0x2932 <Get_adc_ext_val+0x32>
    293a:	20 91 78 00 	lds	r18, 0x0078	; 0x800078 <__TEXT_REGION_LENGTH__+0x7e0078>
    293e:	80 91 79 00 	lds	r24, 0x0079	; 0x800079 <__TEXT_REGION_LENGTH__+0x7e0079>
    2942:	90 e0       	ldi	r25, 0x00	; 0
    2944:	98 2f       	mov	r25, r24
    2946:	88 27       	eor	r24, r24
    2948:	82 0f       	add	r24, r18
    294a:	91 1d       	adc	r25, r1
    294c:	08 95       	ret

0000294e <__vector_21>:
    294e:	1f 92       	push	r1
    2950:	0f 92       	push	r0
    2952:	0f b6       	in	r0, 0x3f	; 63
    2954:	0f 92       	push	r0
    2956:	11 24       	eor	r1, r1
    2958:	1f 93       	push	r17
    295a:	2f 93       	push	r18
    295c:	3f 93       	push	r19
    295e:	4f 93       	push	r20
    2960:	5f 93       	push	r21
    2962:	6f 93       	push	r22
    2964:	7f 93       	push	r23
    2966:	8f 93       	push	r24
    2968:	9f 93       	push	r25
    296a:	af 93       	push	r26
    296c:	bf 93       	push	r27
    296e:	ef 93       	push	r30
    2970:	ff 93       	push	r31
    2972:	cf 93       	push	r28
    2974:	df 93       	push	r29
    2976:	00 d0       	rcall	.+0      	; 0x2978 <__vector_21+0x2a>
    2978:	cd b7       	in	r28, 0x3d	; 61
    297a:	de b7       	in	r29, 0x3e	; 62
    297c:	80 91 15 01 	lds	r24, 0x0115	; 0x800115 <usb_configuration_nb>
    2980:	88 23       	and	r24, r24
    2982:	09 f4       	brne	.+2      	; 0x2986 <__vector_21+0x38>
    2984:	74 c0       	rjmp	.+232    	; 0x2a6e <__vector_21+0x120>
    2986:	10 91 e9 00 	lds	r17, 0x00E9	; 0x8000e9 <__TEXT_REGION_LENGTH__+0x7e00e9>
    298a:	82 e0       	ldi	r24, 0x02	; 2
    298c:	80 93 e9 00 	sts	0x00E9, r24	; 0x8000e9 <__TEXT_REGION_LENGTH__+0x7e00e9>
    2990:	80 91 e8 00 	lds	r24, 0x00E8	; 0x8000e8 <__TEXT_REGION_LENGTH__+0x7e00e8>
    2994:	85 ff       	sbrs	r24, 5
    2996:	69 c0       	rjmp	.+210    	; 0x2a6a <__vector_21+0x11c>
    2998:	80 91 1f 05 	lds	r24, 0x051F	; 0x80051f <b_micro_mute>
    299c:	81 11       	cpse	r24, r1
    299e:	58 c0       	rjmp	.+176    	; 0x2a50 <__vector_21+0x102>
    29a0:	80 91 1b 05 	lds	r24, 0x051B	; 0x80051b <s16_micro_volume>
    29a4:	90 91 1c 05 	lds	r25, 0x051C	; 0x80051c <s16_micro_volume+0x1>
    29a8:	18 16       	cp	r1, r24
    29aa:	19 06       	cpc	r1, r25
    29ac:	0c f0       	brlt	.+2      	; 0x29b0 <__vector_21+0x62>
    29ae:	50 c0       	rjmp	.+160    	; 0x2a50 <__vector_21+0x102>
    29b0:	36 99       	sbic	0x06, 6	; 6
    29b2:	1d c0       	rjmp	.+58     	; 0x29ee <__vector_21+0xa0>
    29b4:	80 91 10 01 	lds	r24, 0x0110	; 0x800110 <g_u16_micro_sample_pos>
    29b8:	90 91 11 01 	lds	r25, 0x0111	; 0x800111 <g_u16_micro_sample_pos+0x1>
    29bc:	fc 01       	movw	r30, r24
    29be:	ec 53       	subi	r30, 0x3C	; 60
    29c0:	ff 4f       	sbci	r31, 0xFF	; 255
    29c2:	e4 91       	lpm	r30, Z
    29c4:	e9 83       	std	Y+1, r30	; 0x01
    29c6:	9c 01       	movw	r18, r24
    29c8:	2e 5f       	subi	r18, 0xFE	; 254
    29ca:	3f 4f       	sbci	r19, 0xFF	; 255
    29cc:	30 93 11 01 	sts	0x0111, r19	; 0x800111 <g_u16_micro_sample_pos+0x1>
    29d0:	20 93 10 01 	sts	0x0110, r18	; 0x800110 <g_u16_micro_sample_pos>
    29d4:	fc 01       	movw	r30, r24
    29d6:	eb 53       	subi	r30, 0x3B	; 59
    29d8:	ff 4f       	sbci	r31, 0xFF	; 255
    29da:	e4 91       	lpm	r30, Z
    29dc:	ea 83       	std	Y+2, r30	; 0x02
    29de:	2e 37       	cpi	r18, 0x7E	; 126
    29e0:	3c 41       	sbci	r19, 0x1C	; 28
    29e2:	78 f1       	brcs	.+94     	; 0x2a42 <__vector_21+0xf4>
    29e4:	10 92 11 01 	sts	0x0111, r1	; 0x800111 <g_u16_micro_sample_pos+0x1>
    29e8:	10 92 10 01 	sts	0x0110, r1	; 0x800110 <g_u16_micro_sample_pos>
    29ec:	2a c0       	rjmp	.+84     	; 0x2a42 <__vector_21+0xf4>
    29ee:	63 e0       	ldi	r22, 0x03	; 3
    29f0:	70 e0       	ldi	r23, 0x00	; 0
    29f2:	80 e0       	ldi	r24, 0x00	; 0
    29f4:	90 e0       	ldi	r25, 0x00	; 0
    29f6:	60 da       	rcall	.-2880   	; 0x1eb8 <flash_read_fuse>
    29f8:	86 ff       	sbrs	r24, 6
    29fa:	04 c0       	rjmp	.+8      	; 0x2a04 <__vector_21+0xb6>
    29fc:	7e 99       	sbic	0x0f, 6	; 15
    29fe:	02 c0       	rjmp	.+4      	; 0x2a04 <__vector_21+0xb6>
    2a00:	7f df       	rcall	.-258    	; 0x2900 <Get_adc_ext_val>
    2a02:	17 c0       	rjmp	.+46     	; 0x2a32 <__vector_21+0xe4>
    2a04:	63 e0       	ldi	r22, 0x03	; 3
    2a06:	70 e0       	ldi	r23, 0x00	; 0
    2a08:	80 e0       	ldi	r24, 0x00	; 0
    2a0a:	90 e0       	ldi	r25, 0x00	; 0
    2a0c:	55 da       	rcall	.-2902   	; 0x1eb8 <flash_read_fuse>
    2a0e:	86 ff       	sbrs	r24, 6
    2a10:	02 c0       	rjmp	.+4      	; 0x2a16 <__vector_21+0xc8>
    2a12:	7d 9b       	sbis	0x0f, 5	; 15
    2a14:	f5 cf       	rjmp	.-22     	; 0x2a00 <__vector_21+0xb2>
    2a16:	bf da       	rcall	.-2690   	; 0x1f96 <Get_adc_mic_val>
    2a18:	40 91 1c 05 	lds	r20, 0x051C	; 0x80051c <s16_micro_volume+0x1>
    2a1c:	42 95       	swap	r20
    2a1e:	4f 70       	andi	r20, 0x0F	; 15
    2a20:	27 e0       	ldi	r18, 0x07	; 7
    2a22:	30 e0       	ldi	r19, 0x00	; 0
    2a24:	24 1b       	sub	r18, r20
    2a26:	31 09       	sbc	r19, r1
    2a28:	02 c0       	rjmp	.+4      	; 0x2a2e <__vector_21+0xe0>
    2a2a:	96 95       	lsr	r25
    2a2c:	87 95       	ror	r24
    2a2e:	2a 95       	dec	r18
    2a30:	e2 f7       	brpl	.-8      	; 0x2a2a <__vector_21+0xdc>
    2a32:	9e 5f       	subi	r25, 0xFE	; 254
    2a34:	26 e0       	ldi	r18, 0x06	; 6
    2a36:	88 0f       	add	r24, r24
    2a38:	99 1f       	adc	r25, r25
    2a3a:	2a 95       	dec	r18
    2a3c:	e1 f7       	brne	.-8      	; 0x2a36 <__vector_21+0xe8>
    2a3e:	9a 83       	std	Y+2, r25	; 0x02
    2a40:	89 83       	std	Y+1, r24	; 0x01
    2a42:	89 81       	ldd	r24, Y+1	; 0x01
    2a44:	80 93 f1 00 	sts	0x00F1, r24	; 0x8000f1 <__TEXT_REGION_LENGTH__+0x7e00f1>
    2a48:	8a 81       	ldd	r24, Y+2	; 0x02
    2a4a:	80 93 f1 00 	sts	0x00F1, r24	; 0x8000f1 <__TEXT_REGION_LENGTH__+0x7e00f1>
    2a4e:	04 c0       	rjmp	.+8      	; 0x2a58 <__vector_21+0x10a>
    2a50:	10 92 f1 00 	sts	0x00F1, r1	; 0x8000f1 <__TEXT_REGION_LENGTH__+0x7e00f1>
    2a54:	10 92 f1 00 	sts	0x00F1, r1	; 0x8000f1 <__TEXT_REGION_LENGTH__+0x7e00f1>
    2a58:	80 91 f2 00 	lds	r24, 0x00F2	; 0x8000f2 <__TEXT_REGION_LENGTH__+0x7e00f2>
    2a5c:	80 31       	cpi	r24, 0x10	; 16
    2a5e:	29 f4       	brne	.+10     	; 0x2a6a <__vector_21+0x11c>
    2a60:	80 91 e8 00 	lds	r24, 0x00E8	; 0x8000e8 <__TEXT_REGION_LENGTH__+0x7e00e8>
    2a64:	8f 77       	andi	r24, 0x7F	; 127
    2a66:	80 93 e8 00 	sts	0x00E8, r24	; 0x8000e8 <__TEXT_REGION_LENGTH__+0x7e00e8>
    2a6a:	10 93 e9 00 	sts	0x00E9, r17	; 0x8000e9 <__TEXT_REGION_LENGTH__+0x7e00e9>
    2a6e:	0f 90       	pop	r0
    2a70:	0f 90       	pop	r0
    2a72:	df 91       	pop	r29
    2a74:	cf 91       	pop	r28
    2a76:	ff 91       	pop	r31
    2a78:	ef 91       	pop	r30
    2a7a:	bf 91       	pop	r27
    2a7c:	af 91       	pop	r26
    2a7e:	9f 91       	pop	r25
    2a80:	8f 91       	pop	r24
    2a82:	7f 91       	pop	r23
    2a84:	6f 91       	pop	r22
    2a86:	5f 91       	pop	r21
    2a88:	4f 91       	pop	r20
    2a8a:	3f 91       	pop	r19
    2a8c:	2f 91       	pop	r18
    2a8e:	1f 91       	pop	r17
    2a90:	0f 90       	pop	r0
    2a92:	0f be       	out	0x3f, r0	; 63
    2a94:	0f 90       	pop	r0
    2a96:	1f 90       	pop	r1
    2a98:	18 95       	reti

00002a9a <__vector_17>:
    2a9a:	1f 92       	push	r1
    2a9c:	0f 92       	push	r0
    2a9e:	0f b6       	in	r0, 0x3f	; 63
    2aa0:	0f 92       	push	r0
    2aa2:	11 24       	eor	r1, r1
    2aa4:	2f 93       	push	r18
    2aa6:	3f 93       	push	r19
    2aa8:	4f 93       	push	r20
    2aaa:	5f 93       	push	r21
    2aac:	6f 93       	push	r22
    2aae:	7f 93       	push	r23
    2ab0:	8f 93       	push	r24
    2ab2:	9f 93       	push	r25
    2ab4:	ef 93       	push	r30
    2ab6:	ff 93       	push	r31
    2ab8:	cf 93       	push	r28
    2aba:	df 93       	push	r29
    2abc:	00 d0       	rcall	.+0      	; 0x2abe <__vector_17+0x24>
    2abe:	cd b7       	in	r28, 0x3d	; 61
    2ac0:	de b7       	in	r29, 0x3e	; 62
    2ac2:	80 91 15 01 	lds	r24, 0x0115	; 0x800115 <usb_configuration_nb>
    2ac6:	81 11       	cpse	r24, r1
    2ac8:	03 c0       	rjmp	.+6      	; 0x2ad0 <__vector_17+0x36>
    2aca:	10 92 bf 00 	sts	0x00BF, r1	; 0x8000bf <__TEXT_REGION_LENGTH__+0x7e00bf>
    2ace:	07 c0       	rjmp	.+14     	; 0x2ade <__vector_17+0x44>
    2ad0:	80 91 22 05 	lds	r24, 0x0522	; 0x800522 <b_speaker_mute>
    2ad4:	88 23       	and	r24, r24
    2ad6:	31 f0       	breq	.+12     	; 0x2ae4 <__vector_17+0x4a>
    2ad8:	81 e0       	ldi	r24, 0x01	; 1
    2ada:	80 93 bf 00 	sts	0x00BF, r24	; 0x8000bf <__TEXT_REGION_LENGTH__+0x7e00bf>
    2ade:	10 92 d2 00 	sts	0x00D2, r1	; 0x8000d2 <__TEXT_REGION_LENGTH__+0x7e00d2>
    2ae2:	4e c0       	rjmp	.+156    	; 0x2b80 <__vector_17+0xe6>
    2ae4:	e0 91 20 05 	lds	r30, 0x0520	; 0x800520 <ptr_speaker_data_rd>
    2ae8:	f0 91 21 05 	lds	r31, 0x0521	; 0x800521 <ptr_speaker_data_rd+0x1>
    2aec:	80 91 1d 05 	lds	r24, 0x051D	; 0x80051d <ptr_speaker_data_wr>
    2af0:	90 91 1e 05 	lds	r25, 0x051E	; 0x80051e <ptr_speaker_data_wr+0x1>
    2af4:	8e 17       	cp	r24, r30
    2af6:	9f 07       	cpc	r25, r31
    2af8:	09 f4       	brne	.+2      	; 0x2afc <__vector_17+0x62>
    2afa:	42 c0       	rjmp	.+132    	; 0x2b80 <__vector_17+0xe6>
    2afc:	cf 01       	movw	r24, r30
    2afe:	01 96       	adiw	r24, 0x01	; 1
    2b00:	90 93 21 05 	sts	0x0521, r25	; 0x800521 <ptr_speaker_data_rd+0x1>
    2b04:	80 93 20 05 	sts	0x0520, r24	; 0x800520 <ptr_speaker_data_rd>
    2b08:	80 81       	ld	r24, Z
    2b0a:	89 83       	std	Y+1, r24	; 0x01
    2b0c:	cf 01       	movw	r24, r30
    2b0e:	02 96       	adiw	r24, 0x02	; 2
    2b10:	90 93 21 05 	sts	0x0521, r25	; 0x800521 <ptr_speaker_data_rd+0x1>
    2b14:	80 93 20 05 	sts	0x0520, r24	; 0x800520 <ptr_speaker_data_rd>
    2b18:	21 81       	ldd	r18, Z+1	; 0x01
    2b1a:	2a 83       	std	Y+2, r18	; 0x02
    2b1c:	8b 51       	subi	r24, 0x1B	; 27
    2b1e:	95 40       	sbci	r25, 0x05	; 5
    2b20:	31 f4       	brne	.+12     	; 0x2b2e <__vector_17+0x94>
    2b22:	8b e1       	ldi	r24, 0x1B	; 27
    2b24:	91 e0       	ldi	r25, 0x01	; 1
    2b26:	90 93 21 05 	sts	0x0521, r25	; 0x800521 <ptr_speaker_data_rd+0x1>
    2b2a:	80 93 20 05 	sts	0x0520, r24	; 0x800520 <ptr_speaker_data_rd>
    2b2e:	89 81       	ldd	r24, Y+1	; 0x01
    2b30:	9a 81       	ldd	r25, Y+2	; 0x02
    2b32:	90 58       	subi	r25, 0x80	; 128
    2b34:	88 0f       	add	r24, r24
    2b36:	89 2f       	mov	r24, r25
    2b38:	88 1f       	adc	r24, r24
    2b3a:	99 0b       	sbc	r25, r25
    2b3c:	91 95       	neg	r25
    2b3e:	40 91 19 01 	lds	r20, 0x0119	; 0x800119 <s16_speaker_volume>
    2b42:	29 e0       	ldi	r18, 0x09	; 9
    2b44:	30 e0       	ldi	r19, 0x00	; 0
    2b46:	b9 01       	movw	r22, r18
    2b48:	64 1b       	sub	r22, r20
    2b4a:	71 09       	sbc	r23, r1
    2b4c:	02 c0       	rjmp	.+4      	; 0x2b52 <__vector_17+0xb8>
    2b4e:	96 95       	lsr	r25
    2b50:	87 95       	ror	r24
    2b52:	6a 95       	dec	r22
    2b54:	e2 f7       	brpl	.-8      	; 0x2b4e <__vector_17+0xb4>
    2b56:	90 93 bf 00 	sts	0x00BF, r25	; 0x8000bf <__TEXT_REGION_LENGTH__+0x7e00bf>
    2b5a:	89 81       	ldd	r24, Y+1	; 0x01
    2b5c:	9a 81       	ldd	r25, Y+2	; 0x02
    2b5e:	90 58       	subi	r25, 0x80	; 128
    2b60:	88 0f       	add	r24, r24
    2b62:	89 2f       	mov	r24, r25
    2b64:	88 1f       	adc	r24, r24
    2b66:	99 0b       	sbc	r25, r25
    2b68:	91 95       	neg	r25
    2b6a:	40 91 19 01 	lds	r20, 0x0119	; 0x800119 <s16_speaker_volume>
    2b6e:	24 1b       	sub	r18, r20
    2b70:	31 09       	sbc	r19, r1
    2b72:	02 c0       	rjmp	.+4      	; 0x2b78 <__vector_17+0xde>
    2b74:	96 95       	lsr	r25
    2b76:	87 95       	ror	r24
    2b78:	2a 95       	dec	r18
    2b7a:	e2 f7       	brpl	.-8      	; 0x2b74 <__vector_17+0xda>
    2b7c:	80 93 d2 00 	sts	0x00D2, r24	; 0x8000d2 <__TEXT_REGION_LENGTH__+0x7e00d2>
    2b80:	0f 90       	pop	r0
    2b82:	0f 90       	pop	r0
    2b84:	df 91       	pop	r29
    2b86:	cf 91       	pop	r28
    2b88:	ff 91       	pop	r31
    2b8a:	ef 91       	pop	r30
    2b8c:	9f 91       	pop	r25
    2b8e:	8f 91       	pop	r24
    2b90:	7f 91       	pop	r23
    2b92:	6f 91       	pop	r22
    2b94:	5f 91       	pop	r21
    2b96:	4f 91       	pop	r20
    2b98:	3f 91       	pop	r19
    2b9a:	2f 91       	pop	r18
    2b9c:	0f 90       	pop	r0
    2b9e:	0f be       	out	0x3f, r0	; 63
    2ba0:	0f 90       	pop	r0
    2ba2:	1f 90       	pop	r1
    2ba4:	18 95       	reti

00002ba6 <usb_user_endpoint_init>:
    2ba6:	cf 93       	push	r28
    2ba8:	df 93       	push	r29
    2baa:	c9 ee       	ldi	r28, 0xE9	; 233
    2bac:	d0 e0       	ldi	r29, 0x00	; 0
    2bae:	81 e0       	ldi	r24, 0x01	; 1
    2bb0:	88 83       	st	Y, r24
    2bb2:	64 e4       	ldi	r22, 0x44	; 68
    2bb4:	80 e4       	ldi	r24, 0x40	; 64
    2bb6:	a9 d9       	rcall	.-3246   	; 0x1f0a <usb_config_ep>
    2bb8:	82 e0       	ldi	r24, 0x02	; 2
    2bba:	88 83       	st	Y, r24
    2bbc:	64 e1       	ldi	r22, 0x14	; 20
    2bbe:	81 e4       	ldi	r24, 0x41	; 65
    2bc0:	df 91       	pop	r29
    2bc2:	cf 91       	pop	r28
    2bc4:	a2 c9       	rjmp	.-3260   	; 0x1f0a <usb_config_ep>

00002bc6 <usb_user_get_descriptor>:
    2bc6:	83 30       	cpi	r24, 0x03	; 3
    2bc8:	21 f5       	brne	.+72     	; 0x2c12 <usb_user_get_descriptor+0x4c>
    2bca:	61 30       	cpi	r22, 0x01	; 1
    2bcc:	89 f0       	breq	.+34     	; 0x2bf0 <usb_user_get_descriptor+0x2a>
    2bce:	50 f0       	brcs	.+20     	; 0x2be4 <usb_user_get_descriptor+0x1e>
    2bd0:	62 30       	cpi	r22, 0x02	; 2
    2bd2:	a1 f0       	breq	.+40     	; 0x2bfc <usb_user_get_descriptor+0x36>
    2bd4:	63 30       	cpi	r22, 0x03	; 3
    2bd6:	e9 f4       	brne	.+58     	; 0x2c12 <usb_user_get_descriptor+0x4c>
    2bd8:	8c e0       	ldi	r24, 0x0C	; 12
    2bda:	80 93 16 01 	sts	0x0116, r24	; 0x800116 <data_to_transfer>
    2bde:	85 e4       	ldi	r24, 0x45	; 69
    2be0:	9d e1       	ldi	r25, 0x1D	; 29
    2be2:	11 c0       	rjmp	.+34     	; 0x2c06 <usb_user_get_descriptor+0x40>
    2be4:	84 e0       	ldi	r24, 0x04	; 4
    2be6:	80 93 16 01 	sts	0x0116, r24	; 0x800116 <data_to_transfer>
    2bea:	81 e4       	ldi	r24, 0x41	; 65
    2bec:	9d e1       	ldi	r25, 0x1D	; 29
    2bee:	0b c0       	rjmp	.+22     	; 0x2c06 <usb_user_get_descriptor+0x40>
    2bf0:	8c e0       	ldi	r24, 0x0C	; 12
    2bf2:	80 93 16 01 	sts	0x0116, r24	; 0x800116 <data_to_transfer>
    2bf6:	87 e7       	ldi	r24, 0x77	; 119
    2bf8:	9d e1       	ldi	r25, 0x1D	; 29
    2bfa:	05 c0       	rjmp	.+10     	; 0x2c06 <usb_user_get_descriptor+0x40>
    2bfc:	86 e2       	ldi	r24, 0x26	; 38
    2bfe:	80 93 16 01 	sts	0x0116, r24	; 0x800116 <data_to_transfer>
    2c02:	81 e5       	ldi	r24, 0x51	; 81
    2c04:	9d e1       	ldi	r25, 0x1D	; 29
    2c06:	90 93 18 01 	sts	0x0118, r25	; 0x800118 <pbuffer+0x1>
    2c0a:	80 93 17 01 	sts	0x0117, r24	; 0x800117 <pbuffer>
    2c0e:	81 e0       	ldi	r24, 0x01	; 1
    2c10:	08 95       	ret
    2c12:	80 e0       	ldi	r24, 0x00	; 0
    2c14:	08 95       	ret

00002c16 <check_audio_control_request>:
    2c16:	cf 93       	push	r28
    2c18:	df 93       	push	r29
    2c1a:	00 d0       	rcall	.+0      	; 0x2c1c <check_audio_control_request+0x6>
    2c1c:	00 d0       	rcall	.+0      	; 0x2c1e <check_audio_control_request+0x8>
    2c1e:	00 d0       	rcall	.+0      	; 0x2c20 <check_audio_control_request+0xa>
    2c20:	cd b7       	in	r28, 0x3d	; 61
    2c22:	de b7       	in	r29, 0x3e	; 62
    2c24:	80 91 f1 00 	lds	r24, 0x00F1	; 0x8000f1 <__TEXT_REGION_LENGTH__+0x7e00f1>
    2c28:	8d 83       	std	Y+5, r24	; 0x05
    2c2a:	80 91 f1 00 	lds	r24, 0x00F1	; 0x8000f1 <__TEXT_REGION_LENGTH__+0x7e00f1>
    2c2e:	8e 83       	std	Y+6, r24	; 0x06
    2c30:	80 91 f1 00 	lds	r24, 0x00F1	; 0x8000f1 <__TEXT_REGION_LENGTH__+0x7e00f1>
    2c34:	8b 83       	std	Y+3, r24	; 0x03
    2c36:	80 91 f1 00 	lds	r24, 0x00F1	; 0x8000f1 <__TEXT_REGION_LENGTH__+0x7e00f1>
    2c3a:	8c 83       	std	Y+4, r24	; 0x04
    2c3c:	80 91 f1 00 	lds	r24, 0x00F1	; 0x8000f1 <__TEXT_REGION_LENGTH__+0x7e00f1>
    2c40:	89 83       	std	Y+1, r24	; 0x01
    2c42:	80 91 f1 00 	lds	r24, 0x00F1	; 0x8000f1 <__TEXT_REGION_LENGTH__+0x7e00f1>
    2c46:	8a 83       	std	Y+2, r24	; 0x02
    2c48:	80 91 e8 00 	lds	r24, 0x00E8	; 0x8000e8 <__TEXT_REGION_LENGTH__+0x7e00e8>
    2c4c:	87 7f       	andi	r24, 0xF7	; 247
    2c4e:	80 93 e8 00 	sts	0x00E8, r24	; 0x8000e8 <__TEXT_REGION_LENGTH__+0x7e00e8>
    2c52:	8b 81       	ldd	r24, Y+3	; 0x03
    2c54:	81 11       	cpse	r24, r1
    2c56:	10 c0       	rjmp	.+32     	; 0x2c78 <check_audio_control_request+0x62>
    2c58:	9e 81       	ldd	r25, Y+6	; 0x06
    2c5a:	8c 81       	ldd	r24, Y+4	; 0x04
    2c5c:	82 30       	cpi	r24, 0x02	; 2
    2c5e:	29 f4       	brne	.+10     	; 0x2c6a <check_audio_control_request+0x54>
    2c60:	81 e0       	ldi	r24, 0x01	; 1
    2c62:	2d 81       	ldd	r18, Y+5	; 0x05
    2c64:	22 23       	and	r18, r18
    2c66:	51 f0       	breq	.+20     	; 0x2c7c <check_audio_control_request+0x66>
    2c68:	08 c0       	rjmp	.+16     	; 0x2c7a <check_audio_control_request+0x64>
    2c6a:	85 30       	cpi	r24, 0x05	; 5
    2c6c:	31 f4       	brne	.+12     	; 0x2c7a <check_audio_control_request+0x64>
    2c6e:	8d 81       	ldd	r24, Y+5	; 0x05
    2c70:	81 11       	cpse	r24, r1
    2c72:	03 c0       	rjmp	.+6      	; 0x2c7a <check_audio_control_request+0x64>
    2c74:	82 e0       	ldi	r24, 0x02	; 2
    2c76:	02 c0       	rjmp	.+4      	; 0x2c7c <check_audio_control_request+0x66>
    2c78:	90 e0       	ldi	r25, 0x00	; 0
    2c7a:	80 e0       	ldi	r24, 0x00	; 0
    2c7c:	26 96       	adiw	r28, 0x06	; 6
    2c7e:	0f b6       	in	r0, 0x3f	; 63
    2c80:	f8 94       	cli
    2c82:	de bf       	out	0x3e, r29	; 62
    2c84:	0f be       	out	0x3f, r0	; 63
    2c86:	cd bf       	out	0x3d, r28	; 61
    2c88:	df 91       	pop	r29
    2c8a:	cf 91       	pop	r28
    2c8c:	08 95       	ret

00002c8e <audio_speaker_set_mute>:
    2c8e:	80 91 e8 00 	lds	r24, 0x00E8	; 0x8000e8 <__TEXT_REGION_LENGTH__+0x7e00e8>
    2c92:	82 ff       	sbrs	r24, 2
    2c94:	fc cf       	rjmp	.-8      	; 0x2c8e <audio_speaker_set_mute>
    2c96:	80 91 f1 00 	lds	r24, 0x00F1	; 0x8000f1 <__TEXT_REGION_LENGTH__+0x7e00f1>
    2c9a:	80 93 22 05 	sts	0x0522, r24	; 0x800522 <b_speaker_mute>
    2c9e:	80 91 e8 00 	lds	r24, 0x00E8	; 0x8000e8 <__TEXT_REGION_LENGTH__+0x7e00e8>
    2ca2:	8b 7f       	andi	r24, 0xFB	; 251
    2ca4:	80 93 e8 00 	sts	0x00E8, r24	; 0x8000e8 <__TEXT_REGION_LENGTH__+0x7e00e8>
    2ca8:	80 91 e8 00 	lds	r24, 0x00E8	; 0x8000e8 <__TEXT_REGION_LENGTH__+0x7e00e8>
    2cac:	8f 77       	andi	r24, 0x7F	; 127
    2cae:	80 93 e8 00 	sts	0x00E8, r24	; 0x8000e8 <__TEXT_REGION_LENGTH__+0x7e00e8>
    2cb2:	80 91 e8 00 	lds	r24, 0x00E8	; 0x8000e8 <__TEXT_REGION_LENGTH__+0x7e00e8>
    2cb6:	8e 7f       	andi	r24, 0xFE	; 254
    2cb8:	80 93 e8 00 	sts	0x00E8, r24	; 0x8000e8 <__TEXT_REGION_LENGTH__+0x7e00e8>
    2cbc:	08 95       	ret

00002cbe <audio_speaker_get_mute>:
    2cbe:	80 91 22 05 	lds	r24, 0x0522	; 0x800522 <b_speaker_mute>
    2cc2:	80 93 f1 00 	sts	0x00F1, r24	; 0x8000f1 <__TEXT_REGION_LENGTH__+0x7e00f1>
    2cc6:	80 91 e8 00 	lds	r24, 0x00E8	; 0x8000e8 <__TEXT_REGION_LENGTH__+0x7e00e8>
    2cca:	8e 7f       	andi	r24, 0xFE	; 254
    2ccc:	80 93 e8 00 	sts	0x00E8, r24	; 0x8000e8 <__TEXT_REGION_LENGTH__+0x7e00e8>
    2cd0:	80 91 e8 00 	lds	r24, 0x00E8	; 0x8000e8 <__TEXT_REGION_LENGTH__+0x7e00e8>
    2cd4:	82 ff       	sbrs	r24, 2
    2cd6:	fc cf       	rjmp	.-8      	; 0x2cd0 <audio_speaker_get_mute+0x12>
    2cd8:	80 91 e8 00 	lds	r24, 0x00E8	; 0x8000e8 <__TEXT_REGION_LENGTH__+0x7e00e8>
    2cdc:	8b 7f       	andi	r24, 0xFB	; 251
    2cde:	80 93 e8 00 	sts	0x00E8, r24	; 0x8000e8 <__TEXT_REGION_LENGTH__+0x7e00e8>
    2ce2:	80 91 e8 00 	lds	r24, 0x00E8	; 0x8000e8 <__TEXT_REGION_LENGTH__+0x7e00e8>
    2ce6:	8f 77       	andi	r24, 0x7F	; 127
    2ce8:	80 93 e8 00 	sts	0x00E8, r24	; 0x8000e8 <__TEXT_REGION_LENGTH__+0x7e00e8>
    2cec:	08 95       	ret

00002cee <audio_speaker_set_volume>:
    2cee:	80 91 e8 00 	lds	r24, 0x00E8	; 0x8000e8 <__TEXT_REGION_LENGTH__+0x7e00e8>
    2cf2:	82 ff       	sbrs	r24, 2
    2cf4:	fc cf       	rjmp	.-8      	; 0x2cee <audio_speaker_set_volume>
    2cf6:	80 91 f1 00 	lds	r24, 0x00F1	; 0x8000f1 <__TEXT_REGION_LENGTH__+0x7e00f1>
    2cfa:	80 93 19 01 	sts	0x0119, r24	; 0x800119 <s16_speaker_volume>
    2cfe:	80 91 f1 00 	lds	r24, 0x00F1	; 0x8000f1 <__TEXT_REGION_LENGTH__+0x7e00f1>
    2d02:	80 93 1a 01 	sts	0x011A, r24	; 0x80011a <s16_speaker_volume+0x1>
    2d06:	80 91 e8 00 	lds	r24, 0x00E8	; 0x8000e8 <__TEXT_REGION_LENGTH__+0x7e00e8>
    2d0a:	8b 7f       	andi	r24, 0xFB	; 251
    2d0c:	80 93 e8 00 	sts	0x00E8, r24	; 0x8000e8 <__TEXT_REGION_LENGTH__+0x7e00e8>
    2d10:	80 91 e8 00 	lds	r24, 0x00E8	; 0x8000e8 <__TEXT_REGION_LENGTH__+0x7e00e8>
    2d14:	8f 77       	andi	r24, 0x7F	; 127
    2d16:	80 93 e8 00 	sts	0x00E8, r24	; 0x8000e8 <__TEXT_REGION_LENGTH__+0x7e00e8>
    2d1a:	80 91 e8 00 	lds	r24, 0x00E8	; 0x8000e8 <__TEXT_REGION_LENGTH__+0x7e00e8>
    2d1e:	8e 7f       	andi	r24, 0xFE	; 254
    2d20:	80 93 e8 00 	sts	0x00E8, r24	; 0x8000e8 <__TEXT_REGION_LENGTH__+0x7e00e8>
    2d24:	08 95       	ret

00002d26 <audio_speaker_get_vol_cur>:
    2d26:	80 91 19 01 	lds	r24, 0x0119	; 0x800119 <s16_speaker_volume>
    2d2a:	80 93 f1 00 	sts	0x00F1, r24	; 0x8000f1 <__TEXT_REGION_LENGTH__+0x7e00f1>
    2d2e:	80 91 1a 01 	lds	r24, 0x011A	; 0x80011a <s16_speaker_volume+0x1>
    2d32:	80 93 f1 00 	sts	0x00F1, r24	; 0x8000f1 <__TEXT_REGION_LENGTH__+0x7e00f1>
    2d36:	80 91 e8 00 	lds	r24, 0x00E8	; 0x8000e8 <__TEXT_REGION_LENGTH__+0x7e00e8>
    2d3a:	8e 7f       	andi	r24, 0xFE	; 254
    2d3c:	80 93 e8 00 	sts	0x00E8, r24	; 0x8000e8 <__TEXT_REGION_LENGTH__+0x7e00e8>
    2d40:	80 91 e8 00 	lds	r24, 0x00E8	; 0x8000e8 <__TEXT_REGION_LENGTH__+0x7e00e8>
    2d44:	82 ff       	sbrs	r24, 2
    2d46:	fc cf       	rjmp	.-8      	; 0x2d40 <audio_speaker_get_vol_cur+0x1a>
    2d48:	80 91 e8 00 	lds	r24, 0x00E8	; 0x8000e8 <__TEXT_REGION_LENGTH__+0x7e00e8>
    2d4c:	8b 7f       	andi	r24, 0xFB	; 251
    2d4e:	80 93 e8 00 	sts	0x00E8, r24	; 0x8000e8 <__TEXT_REGION_LENGTH__+0x7e00e8>
    2d52:	80 91 e8 00 	lds	r24, 0x00E8	; 0x8000e8 <__TEXT_REGION_LENGTH__+0x7e00e8>
    2d56:	8f 77       	andi	r24, 0x7F	; 127
    2d58:	80 93 e8 00 	sts	0x00E8, r24	; 0x8000e8 <__TEXT_REGION_LENGTH__+0x7e00e8>
    2d5c:	08 95       	ret

00002d5e <audio_speaker_get_vol_min>:
    2d5e:	87 e0       	ldi	r24, 0x07	; 7
    2d60:	80 93 f1 00 	sts	0x00F1, r24	; 0x8000f1 <__TEXT_REGION_LENGTH__+0x7e00f1>
    2d64:	10 92 f1 00 	sts	0x00F1, r1	; 0x8000f1 <__TEXT_REGION_LENGTH__+0x7e00f1>
    2d68:	80 91 e8 00 	lds	r24, 0x00E8	; 0x8000e8 <__TEXT_REGION_LENGTH__+0x7e00e8>
    2d6c:	8e 7f       	andi	r24, 0xFE	; 254
    2d6e:	80 93 e8 00 	sts	0x00E8, r24	; 0x8000e8 <__TEXT_REGION_LENGTH__+0x7e00e8>
    2d72:	80 91 e8 00 	lds	r24, 0x00E8	; 0x8000e8 <__TEXT_REGION_LENGTH__+0x7e00e8>
    2d76:	82 ff       	sbrs	r24, 2
    2d78:	fc cf       	rjmp	.-8      	; 0x2d72 <audio_speaker_get_vol_min+0x14>
    2d7a:	80 91 e8 00 	lds	r24, 0x00E8	; 0x8000e8 <__TEXT_REGION_LENGTH__+0x7e00e8>
    2d7e:	8b 7f       	andi	r24, 0xFB	; 251
    2d80:	80 93 e8 00 	sts	0x00E8, r24	; 0x8000e8 <__TEXT_REGION_LENGTH__+0x7e00e8>
    2d84:	80 91 e8 00 	lds	r24, 0x00E8	; 0x8000e8 <__TEXT_REGION_LENGTH__+0x7e00e8>
    2d88:	8f 77       	andi	r24, 0x7F	; 127
    2d8a:	80 93 e8 00 	sts	0x00E8, r24	; 0x8000e8 <__TEXT_REGION_LENGTH__+0x7e00e8>
    2d8e:	08 95       	ret

00002d90 <audio_speaker_get_vol_max>:
    2d90:	89 e0       	ldi	r24, 0x09	; 9
    2d92:	80 93 f1 00 	sts	0x00F1, r24	; 0x8000f1 <__TEXT_REGION_LENGTH__+0x7e00f1>
    2d96:	10 92 f1 00 	sts	0x00F1, r1	; 0x8000f1 <__TEXT_REGION_LENGTH__+0x7e00f1>
    2d9a:	80 91 e8 00 	lds	r24, 0x00E8	; 0x8000e8 <__TEXT_REGION_LENGTH__+0x7e00e8>
    2d9e:	8e 7f       	andi	r24, 0xFE	; 254
    2da0:	80 93 e8 00 	sts	0x00E8, r24	; 0x8000e8 <__TEXT_REGION_LENGTH__+0x7e00e8>
    2da4:	80 91 e8 00 	lds	r24, 0x00E8	; 0x8000e8 <__TEXT_REGION_LENGTH__+0x7e00e8>
    2da8:	82 ff       	sbrs	r24, 2
    2daa:	fc cf       	rjmp	.-8      	; 0x2da4 <audio_speaker_get_vol_max+0x14>
    2dac:	80 91 e8 00 	lds	r24, 0x00E8	; 0x8000e8 <__TEXT_REGION_LENGTH__+0x7e00e8>
    2db0:	8b 7f       	andi	r24, 0xFB	; 251
    2db2:	80 93 e8 00 	sts	0x00E8, r24	; 0x8000e8 <__TEXT_REGION_LENGTH__+0x7e00e8>
    2db6:	80 91 e8 00 	lds	r24, 0x00E8	; 0x8000e8 <__TEXT_REGION_LENGTH__+0x7e00e8>
    2dba:	8f 77       	andi	r24, 0x7F	; 127
    2dbc:	80 93 e8 00 	sts	0x00E8, r24	; 0x8000e8 <__TEXT_REGION_LENGTH__+0x7e00e8>
    2dc0:	08 95       	ret

00002dc2 <audio_speaker_get_vol_res>:
    2dc2:	81 e0       	ldi	r24, 0x01	; 1
    2dc4:	80 93 f1 00 	sts	0x00F1, r24	; 0x8000f1 <__TEXT_REGION_LENGTH__+0x7e00f1>
    2dc8:	10 92 f1 00 	sts	0x00F1, r1	; 0x8000f1 <__TEXT_REGION_LENGTH__+0x7e00f1>
    2dcc:	80 91 e8 00 	lds	r24, 0x00E8	; 0x8000e8 <__TEXT_REGION_LENGTH__+0x7e00e8>
    2dd0:	8e 7f       	andi	r24, 0xFE	; 254
    2dd2:	80 93 e8 00 	sts	0x00E8, r24	; 0x8000e8 <__TEXT_REGION_LENGTH__+0x7e00e8>
    2dd6:	80 91 e8 00 	lds	r24, 0x00E8	; 0x8000e8 <__TEXT_REGION_LENGTH__+0x7e00e8>
    2dda:	82 ff       	sbrs	r24, 2
    2ddc:	fc cf       	rjmp	.-8      	; 0x2dd6 <audio_speaker_get_vol_res+0x14>
    2dde:	80 91 e8 00 	lds	r24, 0x00E8	; 0x8000e8 <__TEXT_REGION_LENGTH__+0x7e00e8>
    2de2:	8b 7f       	andi	r24, 0xFB	; 251
    2de4:	80 93 e8 00 	sts	0x00E8, r24	; 0x8000e8 <__TEXT_REGION_LENGTH__+0x7e00e8>
    2de8:	80 91 e8 00 	lds	r24, 0x00E8	; 0x8000e8 <__TEXT_REGION_LENGTH__+0x7e00e8>
    2dec:	8f 77       	andi	r24, 0x7F	; 127
